Archive member included because of file (symbol)

/home/ubuntu/Desktop/RockboxRCC/bu480/firmware/libfirmware.a(ata_idle_notify.o)
                              /home/ubuntu/Desktop/RockboxRCC/bu480/apps/settings.o (register_storage_idle_func)
/home/ubuntu/Desktop/RockboxRCC/bu480/firmware/libfirmware.a(events.o)
                              /home/ubuntu/Desktop/RockboxRCC/bu480/apps/plugin.o (add_event)
/home/ubuntu/Desktop/RockboxRCC/bu480/firmware/libfirmware.a(backlight.o)
                              /home/ubuntu/Desktop/RockboxRCC/bu480/apps/main.o (backlight_on)
/home/ubuntu/Desktop/RockboxRCC/bu480/firmware/libfirmware.a(buflib.o)
                              /home/ubuntu/Desktop/RockboxRCC/bu480/apps/plugin.o (buflib_init)
/home/ubuntu/Desktop/RockboxRCC/bu480/firmware/libfirmware.a(core_alloc.o)
                              /home/ubuntu/Desktop/RockboxRCC/bu480/apps/debug_menu.o (core_alloc)
/home/ubuntu/Desktop/RockboxRCC/bu480/firmware/libfirmware.a(general.o)
                              /home/ubuntu/Desktop/RockboxRCC/bu480/apps/plugin.o (round_value_to_list32)
/home/ubuntu/Desktop/RockboxRCC/bu480/firmware/libfirmware.a(powermgmt.o)
                              /home/ubuntu/Desktop/RockboxRCC/bu480/apps/debug_menu.o (battery_read_info)
/home/ubuntu/Desktop/RockboxRCC/bu480/firmware/libfirmware.a(cpuinfo-linux.o)
                              /home/ubuntu/Desktop/RockboxRCC/bu480/apps/debug_menu.o (cpuusage_linux)
/home/ubuntu/Desktop/RockboxRCC/bu480/firmware/libfirmware.a(usb.o)
                              /home/ubuntu/Desktop/RockboxRCC/bu480/firmware/libfirmware.a(powermgmt.o) (usb_inserted)
/home/ubuntu/Desktop/RockboxRCC/bu480/firmware/libfirmware.a(kernel.o)
                              /home/ubuntu/Desktop/RockboxRCC/bu480/apps/main.o (kernel_init)
/home/ubuntu/Desktop/RockboxRCC/bu480/firmware/libfirmware.a(panic.o)
                              /home/ubuntu/Desktop/RockboxRCC/bu480/apps/buffering.o (panicf)
/home/ubuntu/Desktop/RockboxRCC/bu480/firmware/libfirmware.a(version.o)
                              /home/ubuntu/Desktop/RockboxRCC/bu480/apps/menus/main_menu.o (rbversion)
/home/ubuntu/Desktop/RockboxRCC/bu480/firmware/libfirmware.a(crc32.o)
                              /home/ubuntu/Desktop/RockboxRCC/bu480/apps/playlist.o (crc_32)
/home/ubuntu/Desktop/RockboxRCC/bu480/firmware/libfirmware.a(filefuncs.o)
                              /home/ubuntu/Desktop/RockboxRCC/bu480/apps/bookmark.o (file_exists)
/home/ubuntu/Desktop/RockboxRCC/bu480/firmware/libfirmware.a(format.o)
                              /home/ubuntu/Desktop/RockboxRCC/bu480/apps/playlist.o (fdprintf)
/home/ubuntu/Desktop/RockboxRCC/bu480/firmware/libfirmware.a(rbpaths.o)
                              /home/ubuntu/Desktop/RockboxRCC/bu480/apps/main.o (paths_init)
/home/ubuntu/Desktop/RockboxRCC/bu480/firmware/libfirmware.a(strcasecmp.o)
                              /home/ubuntu/Desktop/RockboxRCC/bu480/apps/filetypes.o (strcasecmp)
/home/ubuntu/Desktop/RockboxRCC/bu480/firmware/libfirmware.a(strcasestr.o)
                              /home/ubuntu/Desktop/RockboxRCC/bu480/apps/playlist_viewer.o (strcasestr)
/home/ubuntu/Desktop/RockboxRCC/bu480/firmware/libfirmware.a(strnatcmp.o)
                              /home/ubuntu/Desktop/RockboxRCC/bu480/apps/filetree.o (strnatcmp)
/home/ubuntu/Desktop/RockboxRCC/bu480/firmware/libfirmware.a(strlcat.o)
                              /home/ubuntu/Desktop/RockboxRCC/bu480/apps/plugin.o (strlcat)
/home/ubuntu/Desktop/RockboxRCC/bu480/firmware/libfirmware.a(strlcpy.o)
                              /home/ubuntu/Desktop/RockboxRCC/bu480/apps/bookmark.o (strlcpy)
/home/ubuntu/Desktop/RockboxRCC/bu480/firmware/libfirmware.a(structec.o)
                              /home/ubuntu/Desktop/RockboxRCC/bu480/apps/talk.o (structec_convert)
/home/ubuntu/Desktop/RockboxRCC/bu480/firmware/libfirmware.a(timefuncs.o)
                              /home/ubuntu/Desktop/RockboxRCC/bu480/apps/menus/time_menu.o (valid_time)
/home/ubuntu/Desktop/RockboxRCC/bu480/firmware/libfirmware.a(unicode.o)
                              /home/ubuntu/Desktop/RockboxRCC/bu480/apps/plugin.o (utf8encode)
/home/ubuntu/Desktop/RockboxRCC/bu480/firmware/libfirmware.a(scroll_engine.o)
                              /home/ubuntu/Desktop/RockboxRCC/bu480/apps/plugin.o (lcd_scroll_stop)
/home/ubuntu/Desktop/RockboxRCC/bu480/firmware/libfirmware.a(bidi.o)
                              /home/ubuntu/Desktop/RockboxRCC/bu480/apps/plugin.o (bidi_l2v)
/home/ubuntu/Desktop/RockboxRCC/bu480/firmware/libfirmware.a(font.o)
                              /home/ubuntu/Desktop/RockboxRCC/bu480/apps/main.o (font_init)
/home/ubuntu/Desktop/RockboxRCC/bu480/firmware/libfirmware.a(lru.o)
                              /home/ubuntu/Desktop/RockboxRCC/bu480/firmware/libfirmware.a(font.o) (lru_traverse)
/home/ubuntu/Desktop/RockboxRCC/bu480/firmware/libfirmware.a(screendump.o)
                              /home/ubuntu/Desktop/RockboxRCC/bu480/apps/plugin.o (screen_dump_set_hook)
/home/ubuntu/Desktop/RockboxRCC/bu480/firmware/libfirmware.a(lcd-16bit.o)
                              /home/ubuntu/Desktop/RockboxRCC/bu480/firmware/libfirmware.a(screendump.o) (lcd_framebuffer)
/home/ubuntu/Desktop/RockboxRCC/bu480/firmware/libfirmware.a(diacritic.o)
                              /home/ubuntu/Desktop/RockboxRCC/bu480/apps/plugin.o (is_diacritic)
/home/ubuntu/Desktop/RockboxRCC/bu480/firmware/libfirmware.a(led.o)
                              /home/ubuntu/Desktop/RockboxRCC/bu480/apps/plugin.o (led)
/home/ubuntu/Desktop/RockboxRCC/bu480/firmware/libfirmware.a(button.o)
                              /home/ubuntu/Desktop/RockboxRCC/bu480/apps/plugin.o (button_queue)
/home/ubuntu/Desktop/RockboxRCC/bu480/firmware/libfirmware.a(touchscreen.o)
                              /home/ubuntu/Desktop/RockboxRCC/bu480/apps/screens.o (touchscreen_disable_mapping)
/home/ubuntu/Desktop/RockboxRCC/bu480/firmware/libfirmware.a(sound.o)
                              /home/ubuntu/Desktop/RockboxRCC/bu480/apps/settings_list.o (sound_set_channels)
/home/ubuntu/Desktop/RockboxRCC/bu480/firmware/libfirmware.a(pcm_sampr.o)
                              /home/ubuntu/Desktop/RockboxRCC/bu480/apps/plugin.o (hw_freq_sampr)
/home/ubuntu/Desktop/RockboxRCC/bu480/firmware/libfirmware.a(pcm.o)
                              /home/ubuntu/Desktop/RockboxRCC/bu480/apps/plugin.o (pcm_calculate_peaks)
/home/ubuntu/Desktop/RockboxRCC/bu480/firmware/libfirmware.a(pcm_mixer.o)
                              /home/ubuntu/Desktop/RockboxRCC/bu480/apps/voice_thread.o (mixer_channel_play_data)
/home/ubuntu/Desktop/RockboxRCC/bu480/firmware/libfirmware.a(audiohw-swcodec.o)
                              /home/ubuntu/Desktop/RockboxRCC/bu480/firmware/libfirmware.a(sound.o) (audiohw_set_channel)
/home/ubuntu/Desktop/RockboxRCC/bu480/firmware/libfirmware.a(kernel-unix.o)
                              /home/ubuntu/Desktop/RockboxRCC/bu480/firmware/libfirmware.a(kernel.o) (tick_start)
/home/ubuntu/Desktop/RockboxRCC/bu480/firmware/libfirmware.a(filesystem-unix.o)
                              /home/ubuntu/Desktop/RockboxRCC/bu480/apps/bookmark.o (filesize)
/home/ubuntu/Desktop/RockboxRCC/bu480/firmware/libfirmware.a(lc-unix.o)
                              /home/ubuntu/Desktop/RockboxRCC/bu480/apps/plugin.o (lc_open)
/home/ubuntu/Desktop/RockboxRCC/bu480/firmware/libfirmware.a(lcd-android.o)
                              /home/ubuntu/Desktop/RockboxRCC/bu480/firmware/libfirmware.a(lcd-16bit.o) (lcd_init_device)
/home/ubuntu/Desktop/RockboxRCC/bu480/firmware/libfirmware.a(button-android.o)
                              /home/ubuntu/Desktop/RockboxRCC/bu480/firmware/libfirmware.a(button.o) (button_init_device)
/home/ubuntu/Desktop/RockboxRCC/bu480/firmware/libfirmware.a(pcm-android.o)
                              /home/ubuntu/Desktop/RockboxRCC/bu480/apps/voice_thread.o (pcm_play_lock)
/home/ubuntu/Desktop/RockboxRCC/bu480/firmware/libfirmware.a(powermgmt-android.o)
                              /home/ubuntu/Desktop/RockboxRCC/bu480/firmware/libfirmware.a(powermgmt.o) (_battery_level)
/home/ubuntu/Desktop/RockboxRCC/bu480/firmware/libfirmware.a(system-android.o)
                              /home/ubuntu/Desktop/RockboxRCC/bu480/firmware/libfirmware.a(panic.o) (system_exception_wait)
/home/ubuntu/Desktop/RockboxRCC/bu480/firmware/libfirmware.a(telephony-android.o)
                              /home/ubuntu/Desktop/RockboxRCC/bu480/firmware/libfirmware.a(system-android.o) (telephony_init_device)
/home/ubuntu/Desktop/RockboxRCC/bu480/firmware/libfirmware.a(button-application.o)
                              /home/ubuntu/Desktop/RockboxRCC/bu480/apps/root_menu.o (android_ignore_back_button)
/home/ubuntu/Desktop/RockboxRCC/bu480/firmware/libfirmware.a(android.o)
                              /home/ubuntu/Desktop/RockboxRCC/bu480/firmware/libfirmware.a(sound.o) (audiohw_set_volume)
/home/ubuntu/Desktop/RockboxRCC/bu480/firmware/libfirmware.a(thread.o)
                              /home/ubuntu/Desktop/RockboxRCC/bu480/firmware/libfirmware.a(kernel.o) (wakeup_priority_protocol_release)
/home/ubuntu/Desktop/RockboxRCC/bu480/firmware/libfirmware.a(sysfont.o)
                              /home/ubuntu/Desktop/RockboxRCC/bu480/firmware/libfirmware.a(font.o) (sysfont)
/home/ubuntu/Desktop/RockboxRCC/bu480/firmware/libfirmware.a(ffs.o)
                              /home/ubuntu/Desktop/RockboxRCC/bu480/firmware/libfirmware.a(thread.o) (find_first_set_bit)
/home/ubuntu/Desktop/RockboxRCC/bu480/firmware/libfirmware.a(memset16.o)
                              /home/ubuntu/Desktop/RockboxRCC/bu480/firmware/libfirmware.a(lcd-16bit.o) (memset16)
/home/ubuntu/Desktop/RockboxRCC/bu480/firmware/libfirmware.a(rtc.o)
                              /home/ubuntu/Desktop/RockboxRCC/bu480/firmware/libfirmware.a(timefuncs.o) (rtc_read_datetime)
/home/ubuntu/Desktop/RockboxRCC/bu480/firmware/libfirmware.a(arabjoin.o)
                              /home/ubuntu/Desktop/RockboxRCC/bu480/firmware/libfirmware.a(bidi.o) (jointable)
/home/ubuntu/Desktop/RockboxRCC/bu480/firmware/libfirmware.a(font_cache.o)
                              /home/ubuntu/Desktop/RockboxRCC/bu480/firmware/libfirmware.a(font.o) (font_cache_create)
/home/ubuntu/Desktop/RockboxRCC/bu480/lib/rbcodec/codecs/libspeex-voice.a(bits.o)
                              /home/ubuntu/Desktop/RockboxRCC/bu480/apps/voice_thread.o (speex_bits_set_bit_buffer)
/home/ubuntu/Desktop/RockboxRCC/bu480/lib/rbcodec/codecs/libspeex-voice.a(modes_wb.o)
                              /home/ubuntu/Desktop/RockboxRCC/bu480/apps/voice_thread.o (speex_wb_mode)
/home/ubuntu/Desktop/RockboxRCC/bu480/lib/rbcodec/codecs/libspeex-voice.a(quant_lsp.o)
                              /home/ubuntu/Desktop/RockboxRCC/bu480/lib/rbcodec/codecs/libspeex-voice.a(modes_wb.o) (lsp_unquant_high)
/home/ubuntu/Desktop/RockboxRCC/bu480/lib/rbcodec/codecs/libspeex-voice.a(sb_celp.o)
                              /home/ubuntu/Desktop/RockboxRCC/bu480/lib/rbcodec/codecs/libspeex-voice.a(modes_wb.o) (sb_decoder_init)
/home/ubuntu/Desktop/RockboxRCC/bu480/lib/rbcodec/codecs/libspeex-voice.a(speex.o)
                              /home/ubuntu/Desktop/RockboxRCC/bu480/apps/voice_thread.o (speex_decoder_init)
/home/ubuntu/Desktop/RockboxRCC/bu480/lib/rbcodec/codecs/libspeex-voice.a(filters_arm4.o)
                              /home/ubuntu/Desktop/RockboxRCC/bu480/lib/rbcodec/codecs/libspeex-voice.a(sb_celp.o) (iir_mem16)
/home/ubuntu/Desktop/RockboxRCC/bu480/lib/rbcodec/codecs/libspeex-voice.a(cb_search.o)
                              /home/ubuntu/Desktop/RockboxRCC/bu480/lib/rbcodec/codecs/libspeex-voice.a(modes_wb.o) (split_cb_shape_sign_unquant)
/home/ubuntu/Desktop/RockboxRCC/bu480/lib/rbcodec/codecs/libspeex-voice.a(filters.o)
                              /home/ubuntu/Desktop/RockboxRCC/bu480/lib/rbcodec/codecs/libspeex-voice.a(sb_celp.o) (compute_rms16)
/home/ubuntu/Desktop/RockboxRCC/bu480/lib/rbcodec/codecs/libspeex-voice.a(hexc_10_32_table.o)
                              /home/ubuntu/Desktop/RockboxRCC/bu480/lib/rbcodec/codecs/libspeex-voice.a(modes_wb.o) (hexc_10_32_table)
/home/ubuntu/Desktop/RockboxRCC/bu480/lib/rbcodec/codecs/libspeex-voice.a(hexc_table.o)
                              /home/ubuntu/Desktop/RockboxRCC/bu480/lib/rbcodec/codecs/libspeex-voice.a(modes_wb.o) (hexc_table)
/home/ubuntu/Desktop/RockboxRCC/bu480/lib/rbcodec/codecs/libspeex-voice.a(high_lsp_tables.o)
                              /home/ubuntu/Desktop/RockboxRCC/bu480/lib/rbcodec/codecs/libspeex-voice.a(quant_lsp.o) (high_lsp_cdbk2)
/home/ubuntu/Desktop/RockboxRCC/bu480/lib/rbcodec/codecs/libspeex-voice.a(lsp.o)
                              /home/ubuntu/Desktop/RockboxRCC/bu480/lib/rbcodec/codecs/libspeex-voice.a(sb_celp.o) (lsp_to_lpc)
/home/ubuntu/Desktop/RockboxRCC/bu480/lib/rbcodec/codecs/libspeex-voice.a(lsp_tables_nb.o)
                              /home/ubuntu/Desktop/RockboxRCC/bu480/lib/rbcodec/codecs/libspeex-voice.a(quant_lsp.o) (cdbk_nb_high2)
/home/ubuntu/Desktop/RockboxRCC/bu480/lib/rbcodec/codecs/libspeex-voice.a(ltp.o)
                              /home/ubuntu/Desktop/RockboxRCC/bu480/lib/rbcodec/codecs/libspeex-voice.a(filters.o) (inner_prod)
/home/ubuntu/Desktop/RockboxRCC/bu480/lib/rbcodec/codecs/libspeex-voice.a(modes.o)
                              /home/ubuntu/Desktop/RockboxRCC/bu480/lib/rbcodec/codecs/libspeex-voice.a(modes_wb.o) (speex_nb_mode)
/home/ubuntu/Desktop/RockboxRCC/bu480/lib/rbcodec/codecs/libspeex-voice.a(nb_celp.o)
                              /home/ubuntu/Desktop/RockboxRCC/bu480/lib/rbcodec/codecs/libspeex-voice.a(modes.o) (nb_decoder_init)
/home/ubuntu/Desktop/RockboxRCC/bu480/lib/rbcodec/codecs/libspeex-voice.a(speex_callbacks.o)
                              /home/ubuntu/Desktop/RockboxRCC/bu480/lib/rbcodec/codecs/libspeex-voice.a(nb_celp.o) (speex_inband_handler)
/home/ubuntu/Desktop/RockboxRCC/bu480/lib/rbcodec/codecs/libspeex-voice.a(exc_10_16_table.o)
                              /home/ubuntu/Desktop/RockboxRCC/bu480/lib/rbcodec/codecs/libspeex-voice.a(modes.o) (exc_10_16_table)
/home/ubuntu/Desktop/RockboxRCC/bu480/lib/rbcodec/codecs/libspeex-voice.a(exc_10_32_table.o)
                              /home/ubuntu/Desktop/RockboxRCC/bu480/lib/rbcodec/codecs/libspeex-voice.a(modes.o) (exc_10_32_table)
/home/ubuntu/Desktop/RockboxRCC/bu480/lib/rbcodec/codecs/libspeex-voice.a(exc_20_32_table.o)
                              /home/ubuntu/Desktop/RockboxRCC/bu480/lib/rbcodec/codecs/libspeex-voice.a(modes.o) (exc_20_32_table)
/home/ubuntu/Desktop/RockboxRCC/bu480/lib/rbcodec/codecs/libspeex-voice.a(exc_5_256_table.o)
                              /home/ubuntu/Desktop/RockboxRCC/bu480/lib/rbcodec/codecs/libspeex-voice.a(modes.o) (exc_5_256_table)
/home/ubuntu/Desktop/RockboxRCC/bu480/lib/rbcodec/codecs/libspeex-voice.a(exc_5_64_table.o)
                              /home/ubuntu/Desktop/RockboxRCC/bu480/lib/rbcodec/codecs/libspeex-voice.a(modes.o) (exc_5_64_table)
/home/ubuntu/Desktop/RockboxRCC/bu480/lib/rbcodec/codecs/libspeex-voice.a(exc_8_128_table.o)
                              /home/ubuntu/Desktop/RockboxRCC/bu480/lib/rbcodec/codecs/libspeex-voice.a(modes.o) (exc_8_128_table)
/home/ubuntu/Desktop/RockboxRCC/bu480/lib/rbcodec/codecs/libspeex-voice.a(gain_table.o)
                              /home/ubuntu/Desktop/RockboxRCC/bu480/lib/rbcodec/codecs/libspeex-voice.a(modes.o) (gain_cdbk_nb)
/home/ubuntu/Desktop/RockboxRCC/bu480/lib/rbcodec/codecs/libspeex-voice.a(gain_table_lbr.o)
                              /home/ubuntu/Desktop/RockboxRCC/bu480/lib/rbcodec/codecs/libspeex-voice.a(modes.o) (gain_cdbk_lbr)
/home/ubuntu/Desktop/RockboxRCC/bu480/lib/librbcodec.a(metadata.o)
                              /home/ubuntu/Desktop/RockboxRCC/bu480/apps/playback.o (get_audio_base_codec_type)
/home/ubuntu/Desktop/RockboxRCC/bu480/lib/librbcodec.a(id3tags.o)
                              /home/ubuntu/Desktop/RockboxRCC/bu480/lib/librbcodec.a(metadata.o) (id3_get_num_genre)
/home/ubuntu/Desktop/RockboxRCC/bu480/lib/librbcodec.a(mp3.o)
                              /home/ubuntu/Desktop/RockboxRCC/bu480/lib/librbcodec.a(metadata.o) (get_mp3_metadata)
/home/ubuntu/Desktop/RockboxRCC/bu480/lib/librbcodec.a(mp3data.o)
                              /home/ubuntu/Desktop/RockboxRCC/bu480/lib/librbcodec.a(id3tags.o) (bytes2int)
/home/ubuntu/Desktop/RockboxRCC/bu480/lib/librbcodec.a(channel_mode.o)
                              /home/ubuntu/Desktop/RockboxRCC/bu480/firmware/libfirmware.a(audiohw-swcodec.o) (channel_mode_set_config)
/home/ubuntu/Desktop/RockboxRCC/bu480/lib/librbcodec.a(compressor.o)
                              /home/ubuntu/Desktop/RockboxRCC/bu480/apps/settings.o (dsp_set_compressor)
/home/ubuntu/Desktop/RockboxRCC/bu480/lib/librbcodec.a(crossfeed.o)
                              /home/ubuntu/Desktop/RockboxRCC/bu480/apps/plugin.o (dsp_set_crossfeed_type)
/home/ubuntu/Desktop/RockboxRCC/bu480/lib/librbcodec.a(emu10k_space80.o)
                              /home/ubuntu/Desktop/RockboxRCC/bu480/apps/plugin.o (dsp_set_space80_enable)
/home/ubuntu/Desktop/RockboxRCC/bu480/lib/librbcodec.a(dsp_core.o)
                              /home/ubuntu/Desktop/RockboxRCC/bu480/lib/librbcodec.a(channel_mode.o) (dsp_proc_activate)
/home/ubuntu/Desktop/RockboxRCC/bu480/lib/librbcodec.a(dsp_filter.o)
                              /home/ubuntu/Desktop/RockboxRCC/bu480/lib/librbcodec.a(crossfeed.o) (filter_shelf_coefs)
/home/ubuntu/Desktop/RockboxRCC/bu480/lib/librbcodec.a(dsp_misc.o)
                              /home/ubuntu/Desktop/RockboxRCC/bu480/apps/misc.o (dsp_replaygain_set_settings)
/home/ubuntu/Desktop/RockboxRCC/bu480/lib/librbcodec.a(dsp_sample_input.o)
                              /home/ubuntu/Desktop/RockboxRCC/bu480/lib/librbcodec.a(dsp_core.o) (dsp_sample_input_format_change)
/home/ubuntu/Desktop/RockboxRCC/bu480/lib/librbcodec.a(dsp_sample_output.o)
                              /home/ubuntu/Desktop/RockboxRCC/bu480/lib/librbcodec.a(dsp_core.o) (dsp_sample_output_format_change)
/home/ubuntu/Desktop/RockboxRCC/bu480/lib/librbcodec.a(eq.o)
                              /home/ubuntu/Desktop/RockboxRCC/bu480/apps/menus/eq_menu.o (dsp_set_eq_precut)
/home/ubuntu/Desktop/RockboxRCC/bu480/lib/librbcodec.a(resample.o)
                              /home/ubuntu/Desktop/RockboxRCC/bu480/lib/librbcodec.a(dsp_core.o) (RESAMPLE_proc_db_entry)
/home/ubuntu/Desktop/RockboxRCC/bu480/lib/librbcodec.a(pga.o)
                              /home/ubuntu/Desktop/RockboxRCC/bu480/lib/librbcodec.a(dsp_misc.o) (pga_set_gain)
/home/ubuntu/Desktop/RockboxRCC/bu480/lib/librbcodec.a(tdspeed.o)
                              /home/ubuntu/Desktop/RockboxRCC/bu480/apps/settings.o (dsp_timestretch_enable)
/home/ubuntu/Desktop/RockboxRCC/bu480/lib/librbcodec.a(tone_controls.o)
                              /home/ubuntu/Desktop/RockboxRCC/bu480/firmware/libfirmware.a(audiohw-swcodec.o) (tone_set_prescale)
/home/ubuntu/Desktop/RockboxRCC/bu480/lib/librbcodec.a(dsp_arm.o)
                              /home/ubuntu/Desktop/RockboxRCC/bu480/lib/librbcodec.a(channel_mode.o) (channel_mode_proc_mono)
/home/ubuntu/Desktop/RockboxRCC/bu480/lib/librbcodec.a(replaygain.o)
                              /home/ubuntu/Desktop/RockboxRCC/bu480/apps/screens.o (replaygain_itoa)
/home/ubuntu/Desktop/RockboxRCC/bu480/lib/librbcodec.a(metadata_common.o)
                              /home/ubuntu/Desktop/RockboxRCC/bu480/lib/librbcodec.a(metadata.o) (get_long_le)
/home/ubuntu/Desktop/RockboxRCC/bu480/lib/librbcodec.a(a52.o)
                              /home/ubuntu/Desktop/RockboxRCC/bu480/lib/librbcodec.a(metadata.o) (get_a52_metadata)
/home/ubuntu/Desktop/RockboxRCC/bu480/lib/librbcodec.a(adx.o)
                              /home/ubuntu/Desktop/RockboxRCC/bu480/lib/librbcodec.a(metadata.o) (get_adx_metadata)
/home/ubuntu/Desktop/RockboxRCC/bu480/lib/librbcodec.a(aiff.o)
                              /home/ubuntu/Desktop/RockboxRCC/bu480/lib/librbcodec.a(metadata.o) (get_aiff_metadata)
/home/ubuntu/Desktop/RockboxRCC/bu480/lib/librbcodec.a(asap.o)
                              /home/ubuntu/Desktop/RockboxRCC/bu480/lib/librbcodec.a(metadata.o) (get_asap_metadata)
/home/ubuntu/Desktop/RockboxRCC/bu480/lib/librbcodec.a(asf.o)
                              /home/ubuntu/Desktop/RockboxRCC/bu480/lib/librbcodec.a(metadata.o) (get_asf_metadata)
/home/ubuntu/Desktop/RockboxRCC/bu480/lib/librbcodec.a(au.o)
                              /home/ubuntu/Desktop/RockboxRCC/bu480/lib/librbcodec.a(metadata.o) (get_au_metadata)
/home/ubuntu/Desktop/RockboxRCC/bu480/lib/librbcodec.a(ay.o)
                              /home/ubuntu/Desktop/RockboxRCC/bu480/lib/librbcodec.a(metadata.o) (get_ay_metadata)
/home/ubuntu/Desktop/RockboxRCC/bu480/lib/librbcodec.a(flac.o)
                              /home/ubuntu/Desktop/RockboxRCC/bu480/lib/librbcodec.a(metadata.o) (get_flac_metadata)
/home/ubuntu/Desktop/RockboxRCC/bu480/lib/librbcodec.a(gbs.o)
                              /home/ubuntu/Desktop/RockboxRCC/bu480/lib/librbcodec.a(metadata.o) (get_gbs_metadata)
/home/ubuntu/Desktop/RockboxRCC/bu480/lib/librbcodec.a(hes.o)
                              /home/ubuntu/Desktop/RockboxRCC/bu480/lib/librbcodec.a(metadata.o) (get_hes_metadata)
/home/ubuntu/Desktop/RockboxRCC/bu480/lib/librbcodec.a(kss.o)
                              /home/ubuntu/Desktop/RockboxRCC/bu480/lib/librbcodec.a(metadata.o) (get_kss_metadata)
/home/ubuntu/Desktop/RockboxRCC/bu480/lib/librbcodec.a(mod.o)
                              /home/ubuntu/Desktop/RockboxRCC/bu480/lib/librbcodec.a(metadata.o) (get_mod_metadata)
/home/ubuntu/Desktop/RockboxRCC/bu480/lib/librbcodec.a(monkeys.o)
                              /home/ubuntu/Desktop/RockboxRCC/bu480/lib/librbcodec.a(metadata.o) (get_monkeys_metadata)
/home/ubuntu/Desktop/RockboxRCC/bu480/lib/librbcodec.a(mp4.o)
                              /home/ubuntu/Desktop/RockboxRCC/bu480/lib/librbcodec.a(metadata.o) (get_mp4_metadata)
/home/ubuntu/Desktop/RockboxRCC/bu480/lib/librbcodec.a(mpc.o)
                              /home/ubuntu/Desktop/RockboxRCC/bu480/lib/librbcodec.a(metadata.o) (get_musepack_metadata)
/home/ubuntu/Desktop/RockboxRCC/bu480/lib/librbcodec.a(nsf.o)
                              /home/ubuntu/Desktop/RockboxRCC/bu480/lib/librbcodec.a(metadata.o) (get_nsf_metadata)
/home/ubuntu/Desktop/RockboxRCC/bu480/lib/librbcodec.a(ogg.o)
                              /home/ubuntu/Desktop/RockboxRCC/bu480/lib/librbcodec.a(metadata.o) (get_ogg_metadata)
/home/ubuntu/Desktop/RockboxRCC/bu480/lib/librbcodec.a(oma.o)
                              /home/ubuntu/Desktop/RockboxRCC/bu480/lib/librbcodec.a(metadata.o) (get_oma_metadata)
/home/ubuntu/Desktop/RockboxRCC/bu480/lib/librbcodec.a(rm.o)
                              /home/ubuntu/Desktop/RockboxRCC/bu480/lib/librbcodec.a(metadata.o) (get_rm_metadata)
/home/ubuntu/Desktop/RockboxRCC/bu480/lib/librbcodec.a(sgc.o)
                              /home/ubuntu/Desktop/RockboxRCC/bu480/lib/librbcodec.a(metadata.o) (get_sgc_metadata)
/home/ubuntu/Desktop/RockboxRCC/bu480/lib/librbcodec.a(sid.o)
                              /home/ubuntu/Desktop/RockboxRCC/bu480/lib/librbcodec.a(metadata.o) (get_sid_metadata)
/home/ubuntu/Desktop/RockboxRCC/bu480/lib/librbcodec.a(smaf.o)
                              /home/ubuntu/Desktop/RockboxRCC/bu480/lib/librbcodec.a(metadata.o) (get_smaf_metadata)
/home/ubuntu/Desktop/RockboxRCC/bu480/lib/librbcodec.a(spc.o)
                              /home/ubuntu/Desktop/RockboxRCC/bu480/lib/librbcodec.a(metadata.o) (get_spc_metadata)
/home/ubuntu/Desktop/RockboxRCC/bu480/lib/librbcodec.a(tta.o)
                              /home/ubuntu/Desktop/RockboxRCC/bu480/lib/librbcodec.a(metadata.o) (get_tta_metadata)
/home/ubuntu/Desktop/RockboxRCC/bu480/lib/librbcodec.a(vgm.o)
                              /home/ubuntu/Desktop/RockboxRCC/bu480/lib/librbcodec.a(metadata.o) (get_vgm_metadata)
/home/ubuntu/Desktop/RockboxRCC/bu480/lib/librbcodec.a(vorbis.o)
                              /home/ubuntu/Desktop/RockboxRCC/bu480/lib/librbcodec.a(flac.o) (read_vorbis_tags)
/home/ubuntu/Desktop/RockboxRCC/bu480/lib/librbcodec.a(vox.o)
                              /home/ubuntu/Desktop/RockboxRCC/bu480/lib/librbcodec.a(metadata.o) (get_vox_metadata)
/home/ubuntu/Desktop/RockboxRCC/bu480/lib/librbcodec.a(wave.o)
                              /home/ubuntu/Desktop/RockboxRCC/bu480/lib/librbcodec.a(metadata.o) (get_wave_metadata)
/home/ubuntu/Desktop/RockboxRCC/bu480/lib/librbcodec.a(wavpack.o)
                              /home/ubuntu/Desktop/RockboxRCC/bu480/lib/librbcodec.a(metadata.o) (get_wavpack_metadata)
/home/ubuntu/Desktop/RockboxRCC/bu480/lib/librbcodec.a(emu10k_core.o)
                              /home/ubuntu/Desktop/RockboxRCC/bu480/lib/librbcodec.a(emu10k_space80.o) (emu10k_log15)
/home/ubuntu/Desktop/RockboxRCC/bu480/lib/librbcodec.a(ape.o)
                              /home/ubuntu/Desktop/RockboxRCC/bu480/lib/librbcodec.a(monkeys.o) (read_ape_tags)
/home/ubuntu/Desktop/RockboxRCC/bu480/lib/libunwarminder.a(backtrace.o)
                              /home/ubuntu/Desktop/RockboxRCC/bu480/firmware/libfirmware.a(panic.o) (backtrace)
/home/ubuntu/Desktop/RockboxRCC/bu480/lib/libunwarminder.a(unwarminder.o)
                              /home/ubuntu/Desktop/RockboxRCC/bu480/lib/libunwarminder.a(backtrace.o) (UnwindStart)
/home/ubuntu/Desktop/RockboxRCC/bu480/lib/libunwarminder.a(unwarm_thumb.o)
                              /home/ubuntu/Desktop/RockboxRCC/bu480/lib/libunwarminder.a(unwarminder.o) (UnwStartThumb)
/home/ubuntu/Desktop/RockboxRCC/bu480/lib/libunwarminder.a(safe_read.o)
                              /home/ubuntu/Desktop/RockboxRCC/bu480/lib/libunwarminder.a(backtrace.o) (safe_read8)
/home/ubuntu/Desktop/RockboxRCC/bu480/lib/libunwarminder.a(unwarm_arm.o)
                              /home/ubuntu/Desktop/RockboxRCC/bu480/lib/libunwarminder.a(unwarminder.o) (UnwStartArm)
/home/ubuntu/Desktop/RockboxRCC/bu480/lib/libunwarminder.a(unwarm.o)
                              /home/ubuntu/Desktop/RockboxRCC/bu480/lib/libunwarminder.a(unwarm_thumb.o) (UnwInvalidateRegisterFile)
/home/ubuntu/Desktop/RockboxRCC/bu480/lib/libunwarminder.a(unwarmmem.o)
                              /home/ubuntu/Desktop/RockboxRCC/bu480/lib/libunwarminder.a(unwarm.o) (UnwMemHashRead)
/home/ubuntu/Desktop/RockboxRCC/bu480/lib/libskin_parser.a(skin_buffer.o)
                              /home/ubuntu/Desktop/RockboxRCC/bu480/apps/gui/skin_engine/skin_parser.o (skin_buffer_init)
/home/ubuntu/Desktop/RockboxRCC/bu480/lib/libskin_parser.a(skin_parser.o)
                              /home/ubuntu/Desktop/RockboxRCC/bu480/apps/gui/skin_engine/skin_parser.o (skin_parse)
/home/ubuntu/Desktop/RockboxRCC/bu480/lib/libskin_parser.a(skin_scan.o)
                              /home/ubuntu/Desktop/RockboxRCC/bu480/lib/libskin_parser.a(skin_parser.o) (skip_comment)
/home/ubuntu/Desktop/RockboxRCC/bu480/lib/libskin_parser.a(tag_table.o)
                              /home/ubuntu/Desktop/RockboxRCC/bu480/lib/libskin_parser.a(skin_parser.o) (find_tag)
/home/ubuntu/Desktop/RockboxRCC/bu480/lib/libfixedpoint.a(fixedpoint.o)
                              /home/ubuntu/Desktop/RockboxRCC/bu480/lib/librbcodec.a(dsp_filter.o) (fp_sincos)
/home/ubuntu/android-ndk-r9c/toolchains/arm-linux-androideabi-4.8/prebuilt/linux-x86/bin/../lib/gcc/arm-linux-androideabi/4.8/libgcc.a(_udivsi3.o)
                              /home/ubuntu/Desktop/RockboxRCC/bu480/apps/debug_menu.o (__aeabi_uidiv)
/home/ubuntu/android-ndk-r9c/toolchains/arm-linux-androideabi-4.8/prebuilt/linux-x86/bin/../lib/gcc/arm-linux-androideabi/4.8/libgcc.a(_divsi3.o)
                              /home/ubuntu/Desktop/RockboxRCC/bu480/apps/abrepeat.o (__aeabi_idiv)
/home/ubuntu/android-ndk-r9c/toolchains/arm-linux-androideabi-4.8/prebuilt/linux-x86/bin/../lib/gcc/arm-linux-androideabi/4.8/libgcc.a(_aeabi_ldivmod.o)
                              /home/ubuntu/Desktop/RockboxRCC/bu480/apps/beep.o (__aeabi_ldivmod)
/home/ubuntu/android-ndk-r9c/toolchains/arm-linux-androideabi-4.8/prebuilt/linux-x86/bin/../lib/gcc/arm-linux-androideabi/4.8/libgcc.a(_aeabi_uldivmod.o)
                              /home/ubuntu/Desktop/RockboxRCC/bu480/lib/librbcodec.a(asf.o) (__aeabi_uldivmod)
/home/ubuntu/android-ndk-r9c/toolchains/arm-linux-androideabi-4.8/prebuilt/linux-x86/bin/../lib/gcc/arm-linux-androideabi/4.8/libgcc.a(_dvmd_lnx.o)
                              /home/ubuntu/android-ndk-r9c/toolchains/arm-linux-androideabi-4.8/prebuilt/linux-x86/bin/../lib/gcc/arm-linux-androideabi/4.8/libgcc.a(_udivsi3.o) (__aeabi_idiv0)
/home/ubuntu/android-ndk-r9c/toolchains/arm-linux-androideabi-4.8/prebuilt/linux-x86/bin/../lib/gcc/arm-linux-androideabi/4.8/libgcc.a(_popcountsi2.o)
                              /home/ubuntu/Desktop/RockboxRCC/bu480/cpu-features.o (__popcountsi2)
/home/ubuntu/android-ndk-r9c/toolchains/arm-linux-androideabi-4.8/prebuilt/linux-x86/bin/../lib/gcc/arm-linux-androideabi/4.8/libgcc.a(bpabi.o)
                              /home/ubuntu/android-ndk-r9c/toolchains/arm-linux-androideabi-4.8/prebuilt/linux-x86/bin/../lib/gcc/arm-linux-androideabi/4.8/libgcc.a(_aeabi_ldivmod.o) (__gnu_ldivmod_helper)
/home/ubuntu/android-ndk-r9c/toolchains/arm-linux-androideabi-4.8/prebuilt/linux-x86/bin/../lib/gcc/arm-linux-androideabi/4.8/libgcc.a(unwind-arm.o)
                              /home/ubuntu/android-ndk-r9c/toolchains/arm-linux-androideabi-4.8/prebuilt/linux-x86/bin/../lib/gcc/arm-linux-androideabi/4.8/libgcc.a(_popcountsi2.o) (__aeabi_unwind_cpp_pr0)
/home/ubuntu/android-ndk-r9c/toolchains/arm-linux-androideabi-4.8/prebuilt/linux-x86/bin/../lib/gcc/arm-linux-androideabi/4.8/libgcc.a(libunwind.o)
                              /home/ubuntu/android-ndk-r9c/toolchains/arm-linux-androideabi-4.8/prebuilt/linux-x86/bin/../lib/gcc/arm-linux-androideabi/4.8/libgcc.a(unwind-arm.o) (restore_core_regs)
/home/ubuntu/android-ndk-r9c/toolchains/arm-linux-androideabi-4.8/prebuilt/linux-x86/bin/../lib/gcc/arm-linux-androideabi/4.8/libgcc.a(pr-support.o)
                              /home/ubuntu/android-ndk-r9c/toolchains/arm-linux-androideabi-4.8/prebuilt/linux-x86/bin/../lib/gcc/arm-linux-androideabi/4.8/libgcc.a(unwind-arm.o) (__gnu_unwind_execute)
/home/ubuntu/android-ndk-r9c/toolchains/arm-linux-androideabi-4.8/prebuilt/linux-x86/bin/../lib/gcc/arm-linux-androideabi/4.8/libgcc.a(_popcount_tab.o)
                              /home/ubuntu/android-ndk-r9c/toolchains/arm-linux-androideabi-4.8/prebuilt/linux-x86/bin/../lib/gcc/arm-linux-androideabi/4.8/libgcc.a(_popcountsi2.o) (__popcount_tab)
/home/ubuntu/android-ndk-r9c/toolchains/arm-linux-androideabi-4.8/prebuilt/linux-x86/bin/../lib/gcc/arm-linux-androideabi/4.8/libgcc.a(_divdi3.o)
                              /home/ubuntu/android-ndk-r9c/toolchains/arm-linux-androideabi-4.8/prebuilt/linux-x86/bin/../lib/gcc/arm-linux-androideabi/4.8/libgcc.a(bpabi.o) (__divdi3)
/home/ubuntu/android-ndk-r9c/toolchains/arm-linux-androideabi-4.8/prebuilt/linux-x86/bin/../lib/gcc/arm-linux-androideabi/4.8/libgcc.a(_udivdi3.o)
                              /home/ubuntu/android-ndk-r9c/toolchains/arm-linux-androideabi-4.8/prebuilt/linux-x86/bin/../lib/gcc/arm-linux-androideabi/4.8/libgcc.a(bpabi.o) (__udivdi3)

Allocating common symbols
Common symbol       size              file

audiobuffer         0x18c0000         /home/ubuntu/Desktop/RockboxRCC/bu480/firmware/libfirmware.a(core_alloc.o)
lcd_static_framebuffer
                    0xc8280           /home/ubuntu/Desktop/RockboxRCC/bu480/firmware/libfirmware.a(lcd-16bit.o)
threads             0x8c0             /home/ubuntu/Desktop/RockboxRCC/bu480/firmware/libfirmware.a(thread.o)
language_strings    0x88c             /home/ubuntu/Desktop/RockboxRCC/bu480/lang/lang_core.o
global_settings     0x648             /home/ubuntu/Desktop/RockboxRCC/bu480/apps/settings.o
lastfile            0x208             /home/ubuntu/Desktop/RockboxRCC/bu480/apps/tree.o
audio_queue         0x94              /home/ubuntu/Desktop/RockboxRCC/bu480/apps/audio_thread.o
button_queue        0x94              /home/ubuntu/Desktop/RockboxRCC/bu480/firmware/libfirmware.a(button.o)
tree_lists          0x50              /home/ubuntu/Desktop/RockboxRCC/bu480/apps/tree.o
statusbars          0x4c              /home/ubuntu/Desktop/RockboxRCC/bu480/apps/gui/statusbar.o
global_status       0x24              /home/ubuntu/Desktop/RockboxRCC/bu480/apps/settings.o
tick_funcs          0x24              /home/ubuntu/Desktop/RockboxRCC/bu480/firmware/libfirmware.a(kernel.o)
core_ctx            0x18              /home/ubuntu/Desktop/RockboxRCC/bu480/firmware/libfirmware.a(core_alloc.o)
percent_to_volt_charge
                    0x16              /home/ubuntu/Desktop/RockboxRCC/bu480/firmware/libfirmware.a(powermgmt.o)
root_menu_          0xc               /home/ubuntu/Desktop/RockboxRCC/bu480/apps/root_menu.o
RockboxService_class
                    0x4               /home/ubuntu/Desktop/RockboxRCC/bu480/firmware/libfirmware.a(system-android.o)
RockboxService_instance
                    0x4               /home/ubuntu/Desktop/RockboxRCC/bu480/firmware/libfirmware.a(system-android.o)
env_ptr             0x4               /home/ubuntu/Desktop/RockboxRCC/bu480/firmware/libfirmware.a(system-android.o)
global_timer_callback
                    0x4               /home/ubuntu/Desktop/RockboxRCC/bu480/firmware/libfirmware.a(kernel-unix.o)
global_unreg_callback
                    0x4               /home/ubuntu/Desktop/RockboxRCC/bu480/firmware/libfirmware.a(kernel-unix.o)
stackbegin          0x4               /home/ubuntu/Desktop/RockboxRCC/bu480/firmware/libfirmware.a(system-android.o)
stackend            0x4               /home/ubuntu/Desktop/RockboxRCC/bu480/firmware/libfirmware.a(system-android.o)
percent_to_volt_discharge
                    0x0               /home/ubuntu/Desktop/RockboxRCC/bu480/firmware/libfirmware.a(powermgmt.o)

Discarded input sections

 .note.GNU-stack
                0x00000000        0x0 /home/ubuntu/android-ndk-r9c/platforms/android-19/arch-arm/usr/lib/crtbegin_so.o
 .note.GNU-stack
                0x00000000        0x0 /home/ubuntu/Desktop/RockboxRCC/bu480/apps/action.o
 .note.GNU-stack
                0x00000000        0x0 /home/ubuntu/Desktop/RockboxRCC/bu480/apps/abrepeat.o
 .note.GNU-stack
                0x00000000        0x0 /home/ubuntu/Desktop/RockboxRCC/bu480/apps/bookmark.o
 .note.GNU-stack
                0x00000000        0x0 /home/ubuntu/Desktop/RockboxRCC/bu480/apps/debug_menu.o
 .note.GNU-stack
                0x00000000        0x0 /home/ubuntu/Desktop/RockboxRCC/bu480/apps/filetypes.o
 .note.GNU-stack
                0x00000000        0x0 /home/ubuntu/Desktop/RockboxRCC/bu480/apps/language.o
 .note.GNU-stack
                0x00000000        0x0 /home/ubuntu/Desktop/RockboxRCC/bu480/apps/main.o
 .note.GNU-stack
                0x00000000        0x0 /home/ubuntu/Desktop/RockboxRCC/bu480/apps/menu.o
 .note.GNU-stack
                0x00000000        0x0 /home/ubuntu/Desktop/RockboxRCC/bu480/apps/menus/menu_common.o
 .note.GNU-stack
                0x00000000        0x0 /home/ubuntu/Desktop/RockboxRCC/bu480/apps/menus/display_menu.o
 .note.GNU-stack
                0x00000000        0x0 /home/ubuntu/Desktop/RockboxRCC/bu480/apps/menus/theme_menu.o
 .note.GNU-stack
                0x00000000        0x0 /home/ubuntu/Desktop/RockboxRCC/bu480/apps/menus/plugin_menu.o
 .note.GNU-stack
                0x00000000        0x0 /home/ubuntu/Desktop/RockboxRCC/bu480/apps/menus/eq_menu.o
 .note.GNU-stack
                0x00000000        0x0 /home/ubuntu/Desktop/RockboxRCC/bu480/apps/buffering.o
 .note.GNU-stack
                0x00000000        0x0 /home/ubuntu/Desktop/RockboxRCC/bu480/apps/voice_thread.o
 .note.GNU-stack
                0x00000000        0x0 /home/ubuntu/Desktop/RockboxRCC/bu480/apps/rbcodec_helpers.o
 .note.GNU-stack
                0x00000000        0x0 /home/ubuntu/Desktop/RockboxRCC/bu480/apps/menus/main_menu.o
 .note.GNU-stack
                0x00000000        0x0 /home/ubuntu/Desktop/RockboxRCC/bu480/apps/menus/playback_menu.o
 .note.GNU-stack
                0x00000000        0x0 /home/ubuntu/Desktop/RockboxRCC/bu480/apps/menus/playlist_menu.o
 .note.GNU-stack
                0x00000000        0x0 /home/ubuntu/Desktop/RockboxRCC/bu480/apps/menus/settings_menu.o
 .note.GNU-stack
                0x00000000        0x0 /home/ubuntu/Desktop/RockboxRCC/bu480/apps/menus/sound_menu.o
 .note.GNU-stack
                0x00000000        0x0 /home/ubuntu/Desktop/RockboxRCC/bu480/apps/menus/time_menu.o
 .note.GNU-stack
                0x00000000        0x0 /home/ubuntu/Desktop/RockboxRCC/bu480/apps/misc.o
 .note.GNU-stack
                0x00000000        0x0 /home/ubuntu/Desktop/RockboxRCC/bu480/apps/onplay.o
 .note.GNU-stack
                0x00000000        0x0 /home/ubuntu/Desktop/RockboxRCC/bu480/apps/playlist.o
 .note.GNU-stack
                0x00000000        0x0 /home/ubuntu/Desktop/RockboxRCC/bu480/apps/playlist_catalog.o
 .note.GNU-stack
                0x00000000        0x0 /home/ubuntu/Desktop/RockboxRCC/bu480/apps/playlist_viewer.o
 .note.GNU-stack
                0x00000000        0x0 /home/ubuntu/Desktop/RockboxRCC/bu480/apps/plugin.o
 .note.GNU-stack
                0x00000000        0x0 /home/ubuntu/Desktop/RockboxRCC/bu480/apps/root_menu.o
 .note.GNU-stack
                0x00000000        0x0 /home/ubuntu/Desktop/RockboxRCC/bu480/apps/screens.o
 .note.GNU-stack
                0x00000000        0x0 /home/ubuntu/Desktop/RockboxRCC/bu480/apps/settings.o
 .note.GNU-stack
                0x00000000        0x0 /home/ubuntu/Desktop/RockboxRCC/bu480/apps/settings_list.o
 .note.GNU-stack
                0x00000000        0x0 /home/ubuntu/Desktop/RockboxRCC/bu480/apps/shortcuts.o
 .note.GNU-stack
                0x00000000        0x0 /home/ubuntu/Desktop/RockboxRCC/bu480/apps/status.o
 .note.GNU-stack
                0x00000000        0x0 /home/ubuntu/Desktop/RockboxRCC/bu480/apps/cuesheet.o
 .note.GNU-stack
                0x00000000        0x0 /home/ubuntu/Desktop/RockboxRCC/bu480/apps/talk.o
 .note.GNU-stack
                0x00000000        0x0 /home/ubuntu/Desktop/RockboxRCC/bu480/apps/tree.o
 .note.GNU-stack
                0x00000000        0x0 /home/ubuntu/Desktop/RockboxRCC/bu480/apps/tagtree.o
 .note.GNU-stack
                0x00000000        0x0 /home/ubuntu/Desktop/RockboxRCC/bu480/apps/filetree.o
 .note.GNU-stack
                0x00000000        0x0 /home/ubuntu/Desktop/RockboxRCC/bu480/apps/scrobbler.o
 .note.GNU-stack
                0x00000000        0x0 /home/ubuntu/Desktop/RockboxRCC/bu480/apps/screen_access.o
 .note.GNU-stack
                0x00000000        0x0 /home/ubuntu/Desktop/RockboxRCC/bu480/apps/gui/icon.o
 .note.GNU-stack
                0x00000000        0x0 /home/ubuntu/Desktop/RockboxRCC/bu480/apps/gui/list.o
 .note.GNU-stack
                0x00000000        0x0 /home/ubuntu/Desktop/RockboxRCC/bu480/apps/gui/line.o
 .note.GNU-stack
                0x00000000        0x0 /home/ubuntu/Desktop/RockboxRCC/bu480/apps/gui/bitmap/list.o
 .note.GNU-stack
                0x00000000        0x0 /home/ubuntu/Desktop/RockboxRCC/bu480/apps/gui/bitmap/list-skinned.o
 .note.GNU-stack
                0x00000000        0x0 /home/ubuntu/Desktop/RockboxRCC/bu480/apps/gui/option_select.o
 .note.GNU-stack
                0x00000000        0x0 /home/ubuntu/Desktop/RockboxRCC/bu480/apps/gui/pitchscreen.o
 .note.GNU-stack
                0x00000000        0x0 /home/ubuntu/Desktop/RockboxRCC/bu480/apps/gui/quickscreen.o
 .note.GNU-stack
                0x00000000        0x0 /home/ubuntu/Desktop/RockboxRCC/bu480/apps/gui/folder_select.o
 .note.GNU-stack
                0x00000000        0x0 /home/ubuntu/Desktop/RockboxRCC/bu480/apps/gui/wps.o
 .note.GNU-stack
                0x00000000        0x0 /home/ubuntu/Desktop/RockboxRCC/bu480/apps/gui/scrollbar.o
 .note.GNU-stack
                0x00000000        0x0 /home/ubuntu/Desktop/RockboxRCC/bu480/apps/gui/splash.o
 .note.GNU-stack
                0x00000000        0x0 /home/ubuntu/Desktop/RockboxRCC/bu480/apps/gui/statusbar.o
 .note.GNU-stack
                0x00000000        0x0 /home/ubuntu/Desktop/RockboxRCC/bu480/apps/gui/statusbar-skinned.o
 .note.GNU-stack
                0x00000000        0x0 /home/ubuntu/Desktop/RockboxRCC/bu480/apps/hosted/android/yesno.o
 .note.GNU-stack
                0x00000000        0x0 /home/ubuntu/Desktop/RockboxRCC/bu480/apps/hosted/android/notification.o
 .note.GNU-stack
                0x00000000        0x0 /home/ubuntu/Desktop/RockboxRCC/bu480/apps/gui/viewport.o
 .note.GNU-stack
                0x00000000        0x0 /home/ubuntu/Desktop/RockboxRCC/bu480/apps/gui/skin_engine/skin_backdrops.o
 .note.GNU-stack
                0x00000000        0x0 /home/ubuntu/Desktop/RockboxRCC/bu480/apps/gui/skin_engine/skin_display.o
 .note.GNU-stack
                0x00000000        0x0 /home/ubuntu/Desktop/RockboxRCC/bu480/apps/gui/skin_engine/skin_engine.o
 .note.GNU-stack
                0x00000000        0x0 /home/ubuntu/Desktop/RockboxRCC/bu480/apps/gui/skin_engine/skin_parser.o
 .note.GNU-stack
                0x00000000        0x0 /home/ubuntu/Desktop/RockboxRCC/bu480/apps/gui/skin_engine/skin_render.o
 .note.GNU-stack
                0x00000000        0x0 /home/ubuntu/Desktop/RockboxRCC/bu480/apps/gui/skin_engine/skin_tokens.o
 .note.GNU-stack
                0x00000000        0x0 /home/ubuntu/Desktop/RockboxRCC/bu480/apps/gui/skin_engine/skin_touchsupport.o
 .note.GNU-stack
                0x00000000        0x0 /home/ubuntu/Desktop/RockboxRCC/bu480/apps/gui/backdrop.o
 .note.GNU-stack
                0x00000000        0x0 /home/ubuntu/Desktop/RockboxRCC/bu480/apps/recorder/bmp.o
 .note.GNU-stack
                0x00000000        0x0 /home/ubuntu/Desktop/RockboxRCC/bu480/apps/recorder/icons.o
 .note.GNU-stack
                0x00000000        0x0 /home/ubuntu/Desktop/RockboxRCC/bu480/apps/hosted/android/keyboard.o
 .note.GNU-stack
                0x00000000        0x0 /home/ubuntu/Desktop/RockboxRCC/bu480/apps/recorder/peakmeter.o
 .note.GNU-stack
                0x00000000        0x0 /home/ubuntu/Desktop/RockboxRCC/bu480/apps/recorder/resize.o
 .note.GNU-stack
                0x00000000        0x0 /home/ubuntu/Desktop/RockboxRCC/bu480/apps/recorder/jpeg_load.o
 .note.GNU-stack
                0x00000000        0x0 /home/ubuntu/Desktop/RockboxRCC/bu480/apps/recorder/jpeg_idct_arm.o
 .note.GNU-stack
                0x00000000        0x0 /home/ubuntu/Desktop/RockboxRCC/bu480/apps/recorder/albumart.o
 .note.GNU-stack
                0x00000000        0x0 /home/ubuntu/Desktop/RockboxRCC/bu480/apps/gui/color_picker.o
 .note.GNU-stack
                0x00000000        0x0 /home/ubuntu/Desktop/RockboxRCC/bu480/apps/audio_thread.o
 .note.GNU-stack
                0x00000000        0x0 /home/ubuntu/Desktop/RockboxRCC/bu480/apps/pcmbuf.o
 .note.GNU-stack
                0x00000000        0x0 /home/ubuntu/Desktop/RockboxRCC/bu480/apps/codec_thread.o
 .note.GNU-stack
                0x00000000        0x0 /home/ubuntu/Desktop/RockboxRCC/bu480/apps/playback.o
 .note.GNU-stack
                0x00000000        0x0 /home/ubuntu/Desktop/RockboxRCC/bu480/apps/codecs.o
 .note.GNU-stack
                0x00000000        0x0 /home/ubuntu/Desktop/RockboxRCC/bu480/apps/beep.o
 .note.GNU-stack
                0x00000000        0x0 /home/ubuntu/Desktop/RockboxRCC/bu480/apps/tagcache.o
 .note.GNU-stack
                0x00000000        0x0 /home/ubuntu/Desktop/RockboxRCC/bu480/apps/keymaps/keymap-touchscreen.o
 .note.GNU-stack
                0x00000000        0x0 /home/ubuntu/Desktop/RockboxRCC/bu480/apps/keymaps/keymap-android.o
 .note.GNU-stack
                0x00000000        0x0 /home/ubuntu/Desktop/RockboxRCC/bu480/apps/bitmaps/mono/default_icons.o
 .note.GNU-stack
                0x00000000        0x0 /home/ubuntu/Desktop/RockboxRCC/bu480/apps/bitmaps/native/rockboxlogo.480x149x16.o
 .note.GNU-stack
                0x00000000        0x0 /home/ubuntu/Desktop/RockboxRCC/bu480/apps/bitmaps/native/usblogo.176x48x16.o
 .note.GNU-stack
                0x00000000        0x0 /home/ubuntu/Desktop/RockboxRCC/bu480/lang/lang_core.o
 .note.GNU-stack
                0x00000000        0x0 /home/ubuntu/Desktop/RockboxRCC/bu480/firmware/libfirmware.a(ata_idle_notify.o)
 .note.GNU-stack
                0x00000000        0x0 /home/ubuntu/Desktop/RockboxRCC/bu480/firmware/libfirmware.a(events.o)
 .note.GNU-stack
                0x00000000        0x0 /home/ubuntu/Desktop/RockboxRCC/bu480/firmware/libfirmware.a(backlight.o)
 .note.GNU-stack
                0x00000000        0x0 /home/ubuntu/Desktop/RockboxRCC/bu480/firmware/libfirmware.a(buflib.o)
 .note.GNU-stack
                0x00000000        0x0 /home/ubuntu/Desktop/RockboxRCC/bu480/firmware/libfirmware.a(core_alloc.o)
 .note.GNU-stack
                0x00000000        0x0 /home/ubuntu/Desktop/RockboxRCC/bu480/firmware/libfirmware.a(general.o)
 .note.GNU-stack
                0x00000000        0x0 /home/ubuntu/Desktop/RockboxRCC/bu480/firmware/libfirmware.a(powermgmt.o)
 .note.GNU-stack
                0x00000000        0x0 /home/ubuntu/Desktop/RockboxRCC/bu480/firmware/libfirmware.a(cpuinfo-linux.o)
 .note.GNU-stack
                0x00000000        0x0 /home/ubuntu/Desktop/RockboxRCC/bu480/firmware/libfirmware.a(usb.o)
 .note.GNU-stack
                0x00000000        0x0 /home/ubuntu/Desktop/RockboxRCC/bu480/firmware/libfirmware.a(kernel.o)
 .note.GNU-stack
                0x00000000        0x0 /home/ubuntu/Desktop/RockboxRCC/bu480/firmware/libfirmware.a(panic.o)
 .note.GNU-stack
                0x00000000        0x0 /home/ubuntu/Desktop/RockboxRCC/bu480/firmware/libfirmware.a(version.o)
 .note.GNU-stack
                0x00000000        0x0 /home/ubuntu/Desktop/RockboxRCC/bu480/firmware/libfirmware.a(crc32.o)
 .note.GNU-stack
                0x00000000        0x0 /home/ubuntu/Desktop/RockboxRCC/bu480/firmware/libfirmware.a(filefuncs.o)
 .note.GNU-stack
                0x00000000        0x0 /home/ubuntu/Desktop/RockboxRCC/bu480/firmware/libfirmware.a(format.o)
 .note.GNU-stack
                0x00000000        0x0 /home/ubuntu/Desktop/RockboxRCC/bu480/firmware/libfirmware.a(rbpaths.o)
 .note.GNU-stack
                0x00000000        0x0 /home/ubuntu/Desktop/RockboxRCC/bu480/firmware/libfirmware.a(strcasecmp.o)
 .note.GNU-stack
                0x00000000        0x0 /home/ubuntu/Desktop/RockboxRCC/bu480/firmware/libfirmware.a(strcasestr.o)
 .note.GNU-stack
                0x00000000        0x0 /home/ubuntu/Desktop/RockboxRCC/bu480/firmware/libfirmware.a(strnatcmp.o)
 .note.GNU-stack
                0x00000000        0x0 /home/ubuntu/Desktop/RockboxRCC/bu480/firmware/libfirmware.a(strlcat.o)
 .note.GNU-stack
                0x00000000        0x0 /home/ubuntu/Desktop/RockboxRCC/bu480/firmware/libfirmware.a(strlcpy.o)
 .note.GNU-stack
                0x00000000        0x0 /home/ubuntu/Desktop/RockboxRCC/bu480/firmware/libfirmware.a(structec.o)
 .note.GNU-stack
                0x00000000        0x0 /home/ubuntu/Desktop/RockboxRCC/bu480/firmware/libfirmware.a(timefuncs.o)
 .note.GNU-stack
                0x00000000        0x0 /home/ubuntu/Desktop/RockboxRCC/bu480/firmware/libfirmware.a(unicode.o)
 .note.GNU-stack
                0x00000000        0x0 /home/ubuntu/Desktop/RockboxRCC/bu480/firmware/libfirmware.a(scroll_engine.o)
 .note.GNU-stack
                0x00000000        0x0 /home/ubuntu/Desktop/RockboxRCC/bu480/firmware/libfirmware.a(bidi.o)
 .note.GNU-stack
                0x00000000        0x0 /home/ubuntu/Desktop/RockboxRCC/bu480/firmware/libfirmware.a(font.o)
 .note.GNU-stack
                0x00000000        0x0 /home/ubuntu/Desktop/RockboxRCC/bu480/firmware/libfirmware.a(lru.o)
 .note.GNU-stack
                0x00000000        0x0 /home/ubuntu/Desktop/RockboxRCC/bu480/firmware/libfirmware.a(screendump.o)
 .note.GNU-stack
                0x00000000        0x0 /home/ubuntu/Desktop/RockboxRCC/bu480/firmware/libfirmware.a(lcd-16bit.o)
 .note.GNU-stack
                0x00000000        0x0 /home/ubuntu/Desktop/RockboxRCC/bu480/firmware/libfirmware.a(diacritic.o)
 .note.GNU-stack
                0x00000000        0x0 /home/ubuntu/Desktop/RockboxRCC/bu480/firmware/libfirmware.a(led.o)
 .note.GNU-stack
                0x00000000        0x0 /home/ubuntu/Desktop/RockboxRCC/bu480/firmware/libfirmware.a(button.o)
 .note.GNU-stack
                0x00000000        0x0 /home/ubuntu/Desktop/RockboxRCC/bu480/firmware/libfirmware.a(touchscreen.o)
 .note.GNU-stack
                0x00000000        0x0 /home/ubuntu/Desktop/RockboxRCC/bu480/firmware/libfirmware.a(sound.o)
 .note.GNU-stack
                0x00000000        0x0 /home/ubuntu/Desktop/RockboxRCC/bu480/firmware/libfirmware.a(pcm_sampr.o)
 .note.GNU-stack
                0x00000000        0x0 /home/ubuntu/Desktop/RockboxRCC/bu480/firmware/libfirmware.a(pcm.o)
 .note.GNU-stack
                0x00000000        0x0 /home/ubuntu/Desktop/RockboxRCC/bu480/firmware/libfirmware.a(pcm_mixer.o)
 .note.GNU-stack
                0x00000000        0x0 /home/ubuntu/Desktop/RockboxRCC/bu480/firmware/libfirmware.a(audiohw-swcodec.o)
 .note.GNU-stack
                0x00000000        0x0 /home/ubuntu/Desktop/RockboxRCC/bu480/firmware/libfirmware.a(kernel-unix.o)
 .note.GNU-stack
                0x00000000        0x0 /home/ubuntu/Desktop/RockboxRCC/bu480/firmware/libfirmware.a(filesystem-unix.o)
 .note.GNU-stack
                0x00000000        0x0 /home/ubuntu/Desktop/RockboxRCC/bu480/firmware/libfirmware.a(lc-unix.o)
 .note.GNU-stack
                0x00000000        0x0 /home/ubuntu/Desktop/RockboxRCC/bu480/firmware/libfirmware.a(lcd-android.o)
 .note.GNU-stack
                0x00000000        0x0 /home/ubuntu/Desktop/RockboxRCC/bu480/firmware/libfirmware.a(button-android.o)
 .note.GNU-stack
                0x00000000        0x0 /home/ubuntu/Desktop/RockboxRCC/bu480/firmware/libfirmware.a(pcm-android.o)
 .note.GNU-stack
                0x00000000        0x0 /home/ubuntu/Desktop/RockboxRCC/bu480/firmware/libfirmware.a(powermgmt-android.o)
 .note.GNU-stack
                0x00000000        0x0 /home/ubuntu/Desktop/RockboxRCC/bu480/firmware/libfirmware.a(system-android.o)
 .note.GNU-stack
                0x00000000        0x0 /home/ubuntu/Desktop/RockboxRCC/bu480/firmware/libfirmware.a(telephony-android.o)
 .note.GNU-stack
                0x00000000        0x0 /home/ubuntu/Desktop/RockboxRCC/bu480/firmware/libfirmware.a(button-application.o)
 .note.GNU-stack
                0x00000000        0x0 /home/ubuntu/Desktop/RockboxRCC/bu480/firmware/libfirmware.a(android.o)
 .note.GNU-stack
                0x00000000        0x0 /home/ubuntu/Desktop/RockboxRCC/bu480/firmware/libfirmware.a(thread.o)
 .note.GNU-stack
                0x00000000        0x0 /home/ubuntu/Desktop/RockboxRCC/bu480/firmware/libfirmware.a(sysfont.o)
 .note.GNU-stack
                0x00000000        0x0 /home/ubuntu/Desktop/RockboxRCC/bu480/firmware/libfirmware.a(ffs.o)
 .note.GNU-stack
                0x00000000        0x0 /home/ubuntu/Desktop/RockboxRCC/bu480/firmware/libfirmware.a(memset16.o)
 .note.GNU-stack
                0x00000000        0x0 /home/ubuntu/Desktop/RockboxRCC/bu480/firmware/libfirmware.a(rtc.o)
 .note.GNU-stack
                0x00000000        0x0 /home/ubuntu/Desktop/RockboxRCC/bu480/firmware/libfirmware.a(arabjoin.o)
 .note.GNU-stack
                0x00000000        0x0 /home/ubuntu/Desktop/RockboxRCC/bu480/firmware/libfirmware.a(font_cache.o)
 .note.GNU-stack
                0x00000000        0x0 /home/ubuntu/Desktop/RockboxRCC/bu480/lib/rbcodec/codecs/libspeex-voice.a(bits.o)
 .note.GNU-stack
                0x00000000        0x0 /home/ubuntu/Desktop/RockboxRCC/bu480/lib/rbcodec/codecs/libspeex-voice.a(modes_wb.o)
 .note.GNU-stack
                0x00000000        0x0 /home/ubuntu/Desktop/RockboxRCC/bu480/lib/rbcodec/codecs/libspeex-voice.a(quant_lsp.o)
 .note.GNU-stack
                0x00000000        0x0 /home/ubuntu/Desktop/RockboxRCC/bu480/lib/rbcodec/codecs/libspeex-voice.a(sb_celp.o)
 .note.GNU-stack
                0x00000000        0x0 /home/ubuntu/Desktop/RockboxRCC/bu480/lib/rbcodec/codecs/libspeex-voice.a(speex.o)
 .note.GNU-stack
                0x00000000        0x0 /home/ubuntu/Desktop/RockboxRCC/bu480/lib/rbcodec/codecs/libspeex-voice.a(filters_arm4.o)
 .note.GNU-stack
                0x00000000        0x0 /home/ubuntu/Desktop/RockboxRCC/bu480/lib/rbcodec/codecs/libspeex-voice.a(cb_search.o)
 .note.GNU-stack
                0x00000000        0x0 /home/ubuntu/Desktop/RockboxRCC/bu480/lib/rbcodec/codecs/libspeex-voice.a(filters.o)
 .note.GNU-stack
                0x00000000        0x0 /home/ubuntu/Desktop/RockboxRCC/bu480/lib/rbcodec/codecs/libspeex-voice.a(hexc_10_32_table.o)
 .note.GNU-stack
                0x00000000        0x0 /home/ubuntu/Desktop/RockboxRCC/bu480/lib/rbcodec/codecs/libspeex-voice.a(hexc_table.o)
 .note.GNU-stack
                0x00000000        0x0 /home/ubuntu/Desktop/RockboxRCC/bu480/lib/rbcodec/codecs/libspeex-voice.a(high_lsp_tables.o)
 .note.GNU-stack
                0x00000000        0x0 /home/ubuntu/Desktop/RockboxRCC/bu480/lib/rbcodec/codecs/libspeex-voice.a(lsp.o)
 .note.GNU-stack
                0x00000000        0x0 /home/ubuntu/Desktop/RockboxRCC/bu480/lib/rbcodec/codecs/libspeex-voice.a(lsp_tables_nb.o)
 .note.GNU-stack
                0x00000000        0x0 /home/ubuntu/Desktop/RockboxRCC/bu480/lib/rbcodec/codecs/libspeex-voice.a(ltp.o)
 .note.GNU-stack
                0x00000000        0x0 /home/ubuntu/Desktop/RockboxRCC/bu480/lib/rbcodec/codecs/libspeex-voice.a(modes.o)
 .note.GNU-stack
                0x00000000        0x0 /home/ubuntu/Desktop/RockboxRCC/bu480/lib/rbcodec/codecs/libspeex-voice.a(nb_celp.o)
 .note.GNU-stack
                0x00000000        0x0 /home/ubuntu/Desktop/RockboxRCC/bu480/lib/rbcodec/codecs/libspeex-voice.a(speex_callbacks.o)
 .note.GNU-stack
                0x00000000        0x0 /home/ubuntu/Desktop/RockboxRCC/bu480/lib/rbcodec/codecs/libspeex-voice.a(exc_10_16_table.o)
 .note.GNU-stack
                0x00000000        0x0 /home/ubuntu/Desktop/RockboxRCC/bu480/lib/rbcodec/codecs/libspeex-voice.a(exc_10_32_table.o)
 .note.GNU-stack
                0x00000000        0x0 /home/ubuntu/Desktop/RockboxRCC/bu480/lib/rbcodec/codecs/libspeex-voice.a(exc_20_32_table.o)
 .note.GNU-stack
                0x00000000        0x0 /home/ubuntu/Desktop/RockboxRCC/bu480/lib/rbcodec/codecs/libspeex-voice.a(exc_5_256_table.o)
 .note.GNU-stack
                0x00000000        0x0 /home/ubuntu/Desktop/RockboxRCC/bu480/lib/rbcodec/codecs/libspeex-voice.a(exc_5_64_table.o)
 .note.GNU-stack
                0x00000000        0x0 /home/ubuntu/Desktop/RockboxRCC/bu480/lib/rbcodec/codecs/libspeex-voice.a(exc_8_128_table.o)
 .note.GNU-stack
                0x00000000        0x0 /home/ubuntu/Desktop/RockboxRCC/bu480/lib/rbcodec/codecs/libspeex-voice.a(gain_table.o)
 .note.GNU-stack
                0x00000000        0x0 /home/ubuntu/Desktop/RockboxRCC/bu480/lib/rbcodec/codecs/libspeex-voice.a(gain_table_lbr.o)
 .note.GNU-stack
                0x00000000        0x0 /home/ubuntu/Desktop/RockboxRCC/bu480/lib/librbcodec.a(metadata.o)
 .note.GNU-stack
                0x00000000        0x0 /home/ubuntu/Desktop/RockboxRCC/bu480/lib/librbcodec.a(id3tags.o)
 .note.GNU-stack
                0x00000000        0x0 /home/ubuntu/Desktop/RockboxRCC/bu480/lib/librbcodec.a(mp3.o)
 .note.GNU-stack
                0x00000000        0x0 /home/ubuntu/Desktop/RockboxRCC/bu480/lib/librbcodec.a(mp3data.o)
 .note.GNU-stack
                0x00000000        0x0 /home/ubuntu/Desktop/RockboxRCC/bu480/lib/librbcodec.a(channel_mode.o)
 .note.GNU-stack
                0x00000000        0x0 /home/ubuntu/Desktop/RockboxRCC/bu480/lib/librbcodec.a(compressor.o)
 .note.GNU-stack
                0x00000000        0x0 /home/ubuntu/Desktop/RockboxRCC/bu480/lib/librbcodec.a(crossfeed.o)
 .note.GNU-stack
                0x00000000        0x0 /home/ubuntu/Desktop/RockboxRCC/bu480/lib/librbcodec.a(emu10k_space80.o)
 .note.GNU-stack
                0x00000000        0x0 /home/ubuntu/Desktop/RockboxRCC/bu480/lib/librbcodec.a(dsp_core.o)
 .note.GNU-stack
                0x00000000        0x0 /home/ubuntu/Desktop/RockboxRCC/bu480/lib/librbcodec.a(dsp_filter.o)
 .note.GNU-stack
                0x00000000        0x0 /home/ubuntu/Desktop/RockboxRCC/bu480/lib/librbcodec.a(dsp_misc.o)
 .note.GNU-stack
                0x00000000        0x0 /home/ubuntu/Desktop/RockboxRCC/bu480/lib/librbcodec.a(dsp_sample_input.o)
 .note.GNU-stack
                0x00000000        0x0 /home/ubuntu/Desktop/RockboxRCC/bu480/lib/librbcodec.a(dsp_sample_output.o)
 .note.GNU-stack
                0x00000000        0x0 /home/ubuntu/Desktop/RockboxRCC/bu480/lib/librbcodec.a(eq.o)
 .note.GNU-stack
                0x00000000        0x0 /home/ubuntu/Desktop/RockboxRCC/bu480/lib/librbcodec.a(resample.o)
 .note.GNU-stack
                0x00000000        0x0 /home/ubuntu/Desktop/RockboxRCC/bu480/lib/librbcodec.a(pga.o)
 .note.GNU-stack
                0x00000000        0x0 /home/ubuntu/Desktop/RockboxRCC/bu480/lib/librbcodec.a(tdspeed.o)
 .note.GNU-stack
                0x00000000        0x0 /home/ubuntu/Desktop/RockboxRCC/bu480/lib/librbcodec.a(tone_controls.o)
 .note.GNU-stack
                0x00000000        0x0 /home/ubuntu/Desktop/RockboxRCC/bu480/lib/librbcodec.a(dsp_arm.o)
 .note.GNU-stack
                0x00000000        0x0 /home/ubuntu/Desktop/RockboxRCC/bu480/lib/librbcodec.a(replaygain.o)
 .note.GNU-stack
                0x00000000        0x0 /home/ubuntu/Desktop/RockboxRCC/bu480/lib/librbcodec.a(metadata_common.o)
 .note.GNU-stack
                0x00000000        0x0 /home/ubuntu/Desktop/RockboxRCC/bu480/lib/librbcodec.a(a52.o)
 .note.GNU-stack
                0x00000000        0x0 /home/ubuntu/Desktop/RockboxRCC/bu480/lib/librbcodec.a(adx.o)
 .note.GNU-stack
                0x00000000        0x0 /home/ubuntu/Desktop/RockboxRCC/bu480/lib/librbcodec.a(aiff.o)
 .note.GNU-stack
                0x00000000        0x0 /home/ubuntu/Desktop/RockboxRCC/bu480/lib/librbcodec.a(asap.o)
 .note.GNU-stack
                0x00000000        0x0 /home/ubuntu/Desktop/RockboxRCC/bu480/lib/librbcodec.a(asf.o)
 .note.GNU-stack
                0x00000000        0x0 /home/ubuntu/Desktop/RockboxRCC/bu480/lib/librbcodec.a(au.o)
 .note.GNU-stack
                0x00000000        0x0 /home/ubuntu/Desktop/RockboxRCC/bu480/lib/librbcodec.a(ay.o)
 .note.GNU-stack
                0x00000000        0x0 /home/ubuntu/Desktop/RockboxRCC/bu480/lib/librbcodec.a(flac.o)
 .note.GNU-stack
                0x00000000        0x0 /home/ubuntu/Desktop/RockboxRCC/bu480/lib/librbcodec.a(gbs.o)
 .note.GNU-stack
                0x00000000        0x0 /home/ubuntu/Desktop/RockboxRCC/bu480/lib/librbcodec.a(hes.o)
 .note.GNU-stack
                0x00000000        0x0 /home/ubuntu/Desktop/RockboxRCC/bu480/lib/librbcodec.a(kss.o)
 .note.GNU-stack
                0x00000000        0x0 /home/ubuntu/Desktop/RockboxRCC/bu480/lib/librbcodec.a(mod.o)
 .note.GNU-stack
                0x00000000        0x0 /home/ubuntu/Desktop/RockboxRCC/bu480/lib/librbcodec.a(monkeys.o)
 .note.GNU-stack
                0x00000000        0x0 /home/ubuntu/Desktop/RockboxRCC/bu480/lib/librbcodec.a(mp4.o)
 .note.GNU-stack
                0x00000000        0x0 /home/ubuntu/Desktop/RockboxRCC/bu480/lib/librbcodec.a(mpc.o)
 .note.GNU-stack
                0x00000000        0x0 /home/ubuntu/Desktop/RockboxRCC/bu480/lib/librbcodec.a(nsf.o)
 .note.GNU-stack
                0x00000000        0x0 /home/ubuntu/Desktop/RockboxRCC/bu480/lib/librbcodec.a(ogg.o)
 .note.GNU-stack
                0x00000000        0x0 /home/ubuntu/Desktop/RockboxRCC/bu480/lib/librbcodec.a(oma.o)
 .note.GNU-stack
                0x00000000        0x0 /home/ubuntu/Desktop/RockboxRCC/bu480/lib/librbcodec.a(rm.o)
 .note.GNU-stack
                0x00000000        0x0 /home/ubuntu/Desktop/RockboxRCC/bu480/lib/librbcodec.a(sgc.o)
 .note.GNU-stack
                0x00000000        0x0 /home/ubuntu/Desktop/RockboxRCC/bu480/lib/librbcodec.a(sid.o)
 .note.GNU-stack
                0x00000000        0x0 /home/ubuntu/Desktop/RockboxRCC/bu480/lib/librbcodec.a(smaf.o)
 .note.GNU-stack
                0x00000000        0x0 /home/ubuntu/Desktop/RockboxRCC/bu480/lib/librbcodec.a(spc.o)
 .note.GNU-stack
                0x00000000        0x0 /home/ubuntu/Desktop/RockboxRCC/bu480/lib/librbcodec.a(tta.o)
 .note.GNU-stack
                0x00000000        0x0 /home/ubuntu/Desktop/RockboxRCC/bu480/lib/librbcodec.a(vgm.o)
 .note.GNU-stack
                0x00000000        0x0 /home/ubuntu/Desktop/RockboxRCC/bu480/lib/librbcodec.a(vorbis.o)
 .note.GNU-stack
                0x00000000        0x0 /home/ubuntu/Desktop/RockboxRCC/bu480/lib/librbcodec.a(vox.o)
 .note.GNU-stack
                0x00000000        0x0 /home/ubuntu/Desktop/RockboxRCC/bu480/lib/librbcodec.a(wave.o)
 .note.GNU-stack
                0x00000000        0x0 /home/ubuntu/Desktop/RockboxRCC/bu480/lib/librbcodec.a(wavpack.o)
 .note.GNU-stack
                0x00000000        0x0 /home/ubuntu/Desktop/RockboxRCC/bu480/lib/librbcodec.a(emu10k_core.o)
 .note.GNU-stack
                0x00000000        0x0 /home/ubuntu/Desktop/RockboxRCC/bu480/lib/librbcodec.a(ape.o)
 .note.GNU-stack
                0x00000000        0x0 /home/ubuntu/Desktop/RockboxRCC/bu480/lib/libunwarminder.a(backtrace.o)
 .note.GNU-stack
                0x00000000        0x0 /home/ubuntu/Desktop/RockboxRCC/bu480/lib/libunwarminder.a(unwarminder.o)
 .note.GNU-stack
                0x00000000        0x0 /home/ubuntu/Desktop/RockboxRCC/bu480/lib/libunwarminder.a(unwarm_thumb.o)
 .note.GNU-stack
                0x00000000        0x0 /home/ubuntu/Desktop/RockboxRCC/bu480/lib/libunwarminder.a(safe_read.o)
 .note.GNU-stack
                0x00000000        0x0 /home/ubuntu/Desktop/RockboxRCC/bu480/lib/libunwarminder.a(unwarm_arm.o)
 .note.GNU-stack
                0x00000000        0x0 /home/ubuntu/Desktop/RockboxRCC/bu480/lib/libunwarminder.a(unwarm.o)
 .note.GNU-stack
                0x00000000        0x0 /home/ubuntu/Desktop/RockboxRCC/bu480/lib/libunwarminder.a(unwarmmem.o)
 .note.GNU-stack
                0x00000000        0x0 /home/ubuntu/Desktop/RockboxRCC/bu480/lib/libskin_parser.a(skin_buffer.o)
 .note.GNU-stack
                0x00000000        0x0 /home/ubuntu/Desktop/RockboxRCC/bu480/lib/libskin_parser.a(skin_parser.o)
 .note.GNU-stack
                0x00000000        0x0 /home/ubuntu/Desktop/RockboxRCC/bu480/lib/libskin_parser.a(skin_scan.o)
 .note.GNU-stack
                0x00000000        0x0 /home/ubuntu/Desktop/RockboxRCC/bu480/lib/libskin_parser.a(tag_table.o)
 .note.GNU-stack
                0x00000000        0x0 /home/ubuntu/Desktop/RockboxRCC/bu480/lib/libfixedpoint.a(fixedpoint.o)
 .note.GNU-stack
                0x00000000        0x0 /home/ubuntu/Desktop/RockboxRCC/bu480/cpu-features.o
 .note.GNU-stack
                0x00000000        0x0 /home/ubuntu/Desktop/RockboxRCC/bu480/firmware/target/hosted/android/jni/power-manager.o
 .note.GNU-stack
                0x00000000        0x0 /home/ubuntu/android-ndk-r9c/toolchains/arm-linux-androideabi-4.8/prebuilt/linux-x86/bin/../lib/gcc/arm-linux-androideabi/4.8/libgcc.a(_udivsi3.o)
 .note.GNU-stack
                0x00000000        0x0 /home/ubuntu/android-ndk-r9c/toolchains/arm-linux-androideabi-4.8/prebuilt/linux-x86/bin/../lib/gcc/arm-linux-androideabi/4.8/libgcc.a(_divsi3.o)
 .note.GNU-stack
                0x00000000        0x0 /home/ubuntu/android-ndk-r9c/toolchains/arm-linux-androideabi-4.8/prebuilt/linux-x86/bin/../lib/gcc/arm-linux-androideabi/4.8/libgcc.a(_aeabi_ldivmod.o)
 .note.GNU-stack
                0x00000000        0x0 /home/ubuntu/android-ndk-r9c/toolchains/arm-linux-androideabi-4.8/prebuilt/linux-x86/bin/../lib/gcc/arm-linux-androideabi/4.8/libgcc.a(_aeabi_uldivmod.o)
 .note.GNU-stack
                0x00000000        0x0 /home/ubuntu/android-ndk-r9c/toolchains/arm-linux-androideabi-4.8/prebuilt/linux-x86/bin/../lib/gcc/arm-linux-androideabi/4.8/libgcc.a(_dvmd_lnx.o)
 .note.GNU-stack
                0x00000000        0x0 /home/ubuntu/android-ndk-r9c/toolchains/arm-linux-androideabi-4.8/prebuilt/linux-x86/bin/../lib/gcc/arm-linux-androideabi/4.8/libgcc.a(_popcountsi2.o)
 .note.GNU-stack
                0x00000000        0x0 /home/ubuntu/android-ndk-r9c/toolchains/arm-linux-androideabi-4.8/prebuilt/linux-x86/bin/../lib/gcc/arm-linux-androideabi/4.8/libgcc.a(bpabi.o)
 .note.GNU-stack
                0x00000000        0x0 /home/ubuntu/android-ndk-r9c/toolchains/arm-linux-androideabi-4.8/prebuilt/linux-x86/bin/../lib/gcc/arm-linux-androideabi/4.8/libgcc.a(unwind-arm.o)
 .note.GNU-stack
                0x00000000        0x0 /home/ubuntu/android-ndk-r9c/toolchains/arm-linux-androideabi-4.8/prebuilt/linux-x86/bin/../lib/gcc/arm-linux-androideabi/4.8/libgcc.a(libunwind.o)
 .note.GNU-stack
                0x00000000        0x0 /home/ubuntu/android-ndk-r9c/toolchains/arm-linux-androideabi-4.8/prebuilt/linux-x86/bin/../lib/gcc/arm-linux-androideabi/4.8/libgcc.a(pr-support.o)
 .note.GNU-stack
                0x00000000        0x0 /home/ubuntu/android-ndk-r9c/toolchains/arm-linux-androideabi-4.8/prebuilt/linux-x86/bin/../lib/gcc/arm-linux-androideabi/4.8/libgcc.a(_popcount_tab.o)
 .note.GNU-stack
                0x00000000        0x0 /home/ubuntu/android-ndk-r9c/toolchains/arm-linux-androideabi-4.8/prebuilt/linux-x86/bin/../lib/gcc/arm-linux-androideabi/4.8/libgcc.a(_divdi3.o)
 .note.GNU-stack
                0x00000000        0x0 /home/ubuntu/android-ndk-r9c/toolchains/arm-linux-androideabi-4.8/prebuilt/linux-x86/bin/../lib/gcc/arm-linux-androideabi/4.8/libgcc.a(_udivdi3.o)
 .note.GNU-stack
                0x00000000        0x0 /home/ubuntu/android-ndk-r9c/platforms/android-19/arch-arm/usr/lib/crtend_so.o

Memory map

 ** file header
                0x00000000       0x34
 ** segment headers
                0x00000034      0x100

.interp         0x00000134       0x13
 ** fill        0x00000134       0x13

.dynsym         0x00000148     0x6530
 ** dynsym      0x00000148     0x6530

.dynstr         0x00006678     0x6bf2
 ** string table
                0x00006678     0x6bf2

.hash           0x0000d26c     0x2970
 ** hash        0x0000d26c     0x2970

.rel.dyn        0x0000fbdc     0x8250
 ** dynamic relocs
                0x0000fbdc     0x8250

.rel.plt        0x00017e2c      0x2a0
 ** dynamic relocs
                0x00017e2c      0x2a0

.plt            0x000180cc      0x404
 ** PLT         0x000180cc      0x404

.text           0x000184d0    0x7b0b8
 .text.exit     0x000184d0       0x10 /home/ubuntu/android-ndk-r9c/platforms/android-19/arch-arm/usr/lib/crtbegin_so.o
                0x000184d0                __on_dlclose
 .text          0x000184e0       0x14 /home/ubuntu/android-ndk-r9c/platforms/android-19/arch-arm/usr/lib/crtbegin_so.o
                0x000184e0                atexit
 .text          0x000184f4      0x758 /home/ubuntu/Desktop/RockboxRCC/bu480/apps/action.o
                0x000184f4                is_keys_locked
                0x00018a34                get_action
                0x00018a58                get_custom_action
                0x00018a64                action_userabort
                0x00018a98                get_action_data
                0x00018aac                get_action_statuscode
                0x00018ae8                action_get_touchscreen_press
                0x00018bbc                action_get_touchscreen_press_in_vp
                0x00018c34                action_wait_for_release
 .text          0x00018c4c      0x3d0 /home/ubuntu/Desktop/RockboxRCC/bu480/apps/abrepeat.o
                0x00018cc8                ab_repeat_init
                0x00018cf8                ab_before_A_marker
                0x00018d34                ab_after_A_marker
                0x00018d74                ab_jump_to_A_marker
                0x00018d9c                ab_end_of_track_report
                0x00018de4                ab_reset_markers
                0x00018e18                ab_set_A_marker
                0x00018e88                ab_set_B_marker
                0x00018ee4                ab_draw_markers
 .text          0x0001901c     0x18b0 /home/ubuntu/Desktop/RockboxRCC/bu480/apps/bookmark.o
                0x0001a2f8                bookmark_load_menu
                0x0001a384                bookmark_mrb_load
                0x0001a3d8                bookmark_load
                0x0001a498                bookmark_autoload
                0x0001a580                bookmark_exists
                0x0001a5cc                bookmark_is_bookmarkable_state
                0x0001a788                bookmark_create_menu
                0x0001a7a0                bookmark_autobookmark
 .text          0x0001a8cc     0x162c /home/ubuntu/Desktop/RockboxRCC/bu480/apps/debug_menu.o
                0x0001be24                debug_menu
                0x0001be7c                run_debug_screen
 .text          0x0001bef8      0xf2c /home/ubuntu/Desktop/RockboxRCC/bu480/apps/filetypes.o
                0x0001c1f4                tree_get_filetypes
                0x0001c210                read_color_theme_file
                0x0001c37c                read_viewer_theme_file
                0x0001c574                filetype_init
                0x0001ca7c                filetype_get_attr
                0x0001cacc                filetype_get_color
                0x0001cb4c                filetype_get_icon
                0x0001cbb8                filetype_get_plugin
                0x0001cc4c                filetype_supported
                0x0001cc60                filetype_list_viewers
                0x0001cd00                filetype_load_plugin
 .text          0x0001ce24      0x2b4 /home/ubuntu/Desktop/RockboxRCC/bu480/apps/language.o
                0x0001ce24                lang_init
                0x0001ce60                lang_load
                0x0001cfe8                lang_core_load
                0x0001d050                lang_english_to_id
                0x0001d0c0                lang_is_rtl
 .text          0x0001d0d8      0x1e4 /home/ubuntu/Desktop/RockboxRCC/bu480/apps/main.o
                0x0001d0d8                main
 .text          0x0001d2bc      0xedc /home/ubuntu/Desktop/RockboxRCC/bu480/apps/menu.o
                0x0001d88c                do_setting_screen
                0x0001d994                do_setting_from_menu
                0x0001d9e8                do_menu
 .text          0x0001e198       0x34 /home/ubuntu/Desktop/RockboxRCC/bu480/apps/menus/menu_common.o
                0x0001e198                lowlatency_callback
 .text          0x0001e1cc      0x414 /home/ubuntu/Desktop/RockboxRCC/bu480/apps/menus/display_menu.o
 .text          0x0001e5e0      0x3f0 /home/ubuntu/Desktop/RockboxRCC/bu480/apps/menus/theme_menu.o
                0x0001e7c0                browse_folder
 .text          0x0001e9d0       0x78 /home/ubuntu/Desktop/RockboxRCC/bu480/apps/menus/plugin_menu.o
 .text          0x0001ea48     0x1594 /home/ubuntu/Desktop/RockboxRCC/bu480/apps/menus/eq_menu.o
                0x0001eae0                eq_q_format
                0x0001f21c                eq_menu_graphical
                0x0001ff5c                eq_precut_format
 .text          0x0001ffdc     0x2250 /home/ubuntu/Desktop/RockboxRCC/bu480/apps/buffering.o
                0x000214e0                bufopen
                0x000219c4                bufalloc
                0x00021b00                bufclose
                0x00021b2c                bufseek
                0x00021b54                bufadvance
                0x00021bac                bufftell
                0x00021bf8                bufread
                0x00021cbc                bufgetdata
                0x00021d64                bufgettail
                0x00021e20                bufcuttail
                0x00021ecc                buf_handle_offset
                0x00021ee4                buf_set_base_handle
                0x00021f14                buf_handle_data_type
                0x00021f2c                buf_handle_remaining
                0x00021f44                buf_is_handle
                0x00021f58                buf_pin_handle
                0x00021fb8                buf_signal_handle
                0x00021fd8                buf_length
                0x00021fec                buf_used
                0x00022024                buf_set_watermark
                0x00022038                buf_get_watermark
                0x00022058                buffering_init
                0x000220e4                buffering_reset
                0x000221c8                buffering_get_debugdata
 .text          0x0002222c      0x86c /home/ubuntu/Desktop/RockboxRCC/bu480/apps/voice_thread.o
                0x00022810                mp3_play_data
                0x00022874                mp3_play_stop
                0x000228b0                mp3_play_pause
                0x000228b4                mp3_is_playing
                0x000228c8                voice_stop
                0x000228d4                voice_wait
                0x00022918                voice_thread_init
                0x00022a68                voice_thread_set_priority
 .text          0x00022a98      0x1d0 /home/ubuntu/Desktop/RockboxRCC/bu480/apps/rbcodec_helpers.o
                0x00022b24                tdspeed_alloc_buffers
                0x00022c18                tdspeed_free_buffers
 .text          0x00022c68      0x458 /home/ubuntu/Desktop/RockboxRCC/bu480/apps/menus/main_menu.o
 .text          0x000230c0      0x26c /home/ubuntu/Desktop/RockboxRCC/bu480/apps/menus/playback_menu.o
 .text          0x0002332c      0x148 /home/ubuntu/Desktop/RockboxRCC/bu480/apps/menus/playlist_menu.o
                0x0002332c                save_playlist_screen
 .text          0x00023474      0x5d8 /home/ubuntu/Desktop/RockboxRCC/bu480/apps/menus/settings_menu.o
                0x00023928                sleep_timer_formatter
 .text          0x00023a4c      0x15c /home/ubuntu/Desktop/RockboxRCC/bu480/apps/menus/sound_menu.o
 .text          0x00023ba8      0x4dc /home/ubuntu/Desktop/RockboxRCC/bu480/apps/menus/time_menu.o
                0x00023e1c                talk_timedate
                0x00023f50                time_screen
 .text          0x00024084     0x1278 /home/ubuntu/Desktop/RockboxRCC/bu480/apps/misc.o
                0x000240a8                output_dyn_value
                0x000242b0                warn_on_pl_erase
                0x0002432c                fast_readline
                0x000243f8                list_stop_handler
                0x00024450                show_logo
                0x0002450c                setvol
                0x000245d0                default_event_handler_ex
                0x00024a9c                default_event_handler
                0x00024ab0                strrsplt
                0x00024ad4                strip_extension
                0x00024b3c                system_sound_play
                0x00024b80                keyclick_set_callback
                0x00024b98                keyclick_click
                0x00024ce0                id3_get_replaygain_mode
                0x00024d54                replaygain_update
                0x00024db8                read_line
                0x00024e68                skip_whitespace
                0x00024e90                settings_parseline
                0x00024eec                format_time
                0x00024fac                split_string
                0x0002508c                open_utf8
                0x0002512c                hex_to_rgb
                0x000251d4                parse_color
                0x00025224                clamp_value_wrap
                0x00025240                push_current_activity
                0x00025288                pop_current_activity
                0x000252c8                get_current_activity
 .text          0x000252fc     0x1b88 /home/ubuntu/Desktop/RockboxRCC/bu480/apps/onplay.o
                0x00026bdc                onplay_show_playlist_menu
                0x00026c50                onplay_show_playlist_cat_menu
                0x00026c90                get_hotkey_lang_id
                0x00026ce0                onplay
 .text          0x00026e84     0x4c80 /home/ubuntu/Desktop/RockboxRCC/bu480/apps/playlist.o
                0x00028904                playlist_remove_all_tracks
                0x00028d5c                playlist_skip_entry
                0x00028db0                playlist_init
                0x00028eb8                playlist_shutdown
                0x00028f2c                playlist_create
                0x00029000                playlist_resume
                0x00029b70                playlist_add
                0x00029c28                playlist_shuffle
                0x00029d84                playlist_start
                0x00029dc0                playlist_check
                0x00029e64                playlist_peek
                0x00029f80                playlist_next
                0x0002a220                playlist_next_dir
                0x0002a254                playlist_get_resume_info
                0x0002a270                playlist_update_resume_info
                0x0002a334                playlist_get_display_index
                0x0002a36c                playlist_set_last_shuffled_start
                0x0002a384                playlist_create_ex
                0x0002a4cc                playlist_set_current
                0x0002a674                playlist_get_current
                0x0002a684                playlist_close
                0x0002a6e4                playlist_sync
                0x0002a724                playlist_insert_track
                0x0002a7c4                playlist_insert_playlist
                0x0002aaa4                playlist_delete
                0x0002ab40                playlist_move
                0x0002ace4                playlist_randomise
                0x0002ad4c                playlist_sort
                0x0002adac                playlist_modified
                0x0002ade8                playlist_get_first_index
                0x0002ae00                playlist_get_seed
                0x0002ae18                playlist_amount_ex
                0x0002ae30                playlist_amount
                0x0002ae40                playlist_name
                0x0002aeac                playlist_get_name
                0x0002aee4                playlist_get_track_info
                0x0002afd8                playlist_get_filename_crc32
                0x0002b01c                playlist_resume_track
                0x0002b0d4                playlist_save
                0x0002b798                playlist_directory_tracksearch
                0x0002b9f0                playlist_insert_directory
 .text          0x0002bb04      0x928 /home/ubuntu/Desktop/RockboxRCC/bu480/apps/playlist_catalog.o
                0x0002bf34                catalog_set_directory
                0x0002bf94                catalog_get_directory
                0x0002bfc8                catalog_view_playlists
                0x0002c030                catalog_add_to_a_playlist
 .text          0x0002c42c     0x154c /home/ubuntu/Desktop/RockboxRCC/bu480/apps/playlist_viewer.o
                0x0002cd90                playlist_viewer_ex
                0x0002d6cc                playlist_viewer
                0x0002d6dc                search_playlist
 .text          0x0002d978      0x4d8 /home/ubuntu/Desktop/RockboxRCC/bu480/apps/plugin.o
                0x0002d9a4                plugin_get_buffer
                0x0002da0c                plugin_tsr
                0x0002da20                plugin_get_current_filename
                0x0002dac8                plugin_get_audio_buffer
                0x0002db24                plugin_load
 .text          0x0002de50     0x1070 /home/ubuntu/Desktop/RockboxRCC/bu480/apps/root_menu.o
                0x0002e63c                root_menu_write_to_cfg
                0x0002e74c                root_menu_set_default
                0x0002e7dc                root_menu_load_from_cfg
                0x0002e9b8                root_menu_is_changed
                0x0002e9c0                previous_music_is_wps
                0x0002e9d8                root_menu
 .text          0x0002eec0     0x1584 /home/ubuntu/Desktop/RockboxRCC/bu480/apps/screens.o
                0x0002f6ec                set_time_screen
                0x0002ff0c                browse_id3
                0x00030058                view_runtime
                0x00030210                calibrate
                0x000303f4                reset_mapping
 .text          0x00030444     0x1a64 /home/ubuntu/Desktop/RockboxRCC/bu480/apps/settings.o
                0x000306dc                cfg_string_to_int
                0x00030798                cfg_int_to_string
                0x00030930                cfg_to_string
                0x00030e48                status_save
                0x00030e64                settings_save
                0x00030e84                settings_save_config
                0x00030f94                settings_apply_pm_range
                0x00030fe8                sound_settings_apply
                0x00031044                settings_apply
                0x00031378                settings_load_config
                0x0003171c                settings_load
                0x00031948                reset_setting
                0x00031a00                settings_reset
                0x00031ab4                find_setting
                0x00031b58                find_setting_by_cfgname
                0x00031bf4                set_int_ex
                0x00031c68                set_int
                0x00031cac                set_option
                0x00031db4                set_bool_options
                0x00031df8                set_bool
                0x00031e28                set_file
 .text          0x00031ea8      0x8dc /home/ubuntu/Desktop/RockboxRCC/bu480/apps/settings_list.o
                0x0003275c                get_settings_list
 .text          0x00032784      0xeb4 /home/ubuntu/Desktop/RockboxRCC/bu480/apps/shortcuts.o
                0x00032e58                shortcuts_add
                0x00032f28                shortcuts_init
                0x00033340                do_shortcut_menu
 .text          0x00033638       0x60 /home/ubuntu/Desktop/RockboxRCC/bu480/apps/status.o
                0x00033638                status_set_ffmode
                0x0003364c                status_get_ffmode
                0x00033660                current_playmode
 .text          0x00033698      0xc58 /home/ubuntu/Desktop/RockboxRCC/bu480/apps/cuesheet.o
                0x00033744                look_for_cuesheet_file
                0x000338cc                parse_cuesheet
                0x00033e98                cue_find_current_track
                0x00033ef8                browse_cuesheet
                0x000340b4                display_cuesheet_content
                0x00034140                curr_cuesheet_skip
                0x000341c8                cue_draw_markers
                0x00034274                cuesheet_subtrack_changed
 .text          0x000342f0     0x1c14 /home/ubuntu/Desktop/RockboxRCC/bu480/apps/talk.o
                0x00034d4c                talk_force_shutup
                0x00034d9c                talk_shutup
                0x00034f70                talk_init
                0x00035120                talk_voice_required
                0x0003517c                talk_buffer_set_policy
                0x000351c4                talk_force_enqueue_next
                0x000351dc                talk_spell
                0x000355d4                talk_id
                0x00035320                talk_fractional
                0x000359b0                talk_number
                0x000353c4                talk_value_decimal
                0x00035b48                talk_value
                0x00035714                talk_idarray
                0x00035760                talk_file
                0x00035c08                talk_file_or_spell
                0x00035ca0                talk_dir_or_spell
                0x00035d38                talk_disable
                0x00035d78                talk_setting
                0x00035dc8                talk_date
                0x00035e00                talk_time
 .text          0x00035f04     0x1ee4 /home/ubuntu/Desktop/RockboxRCC/bu480/apps/tree.o
                0x0003606c                tree_get_entries
                0x0003609c                tree_get_entry_at
                0x000369e0                check_rockboxdir
                0x00036a54                tree_gui_init
                0x00036b14                tree_get_context
                0x00036b24                resume_directory
                0x00036bcc                getcwd
                0x00036c24                reload_directory
                0x00036c3c                get_current_file
                0x00037610                set_dirfilter
                0x00037628                set_current_file
                0x0003777c                create_playlist
                0x00037858                browse_context_init
                0x00037890                rockbox_browse
                0x00037ab8                tree_mem_init
                0x00037b6c                bookmark_play
                0x00037dd0                tree_flush
                0x00037ddc                tree_restore
 .text          0x00037de8     0x3294 /home/ubuntu/Desktop/RockboxRCC/bu480/apps/tagtree.o
                0x0003a4a8                tagtree_export
                0x0003a4fc                tagtree_import
                0x0003a52c                tagtree_init
                0x0003a654                tagtree_load
                0x0003a724                tagtree_exit
                0x0003a794                tagtree_enter
                0x0003ad30                tagtree_get_filename
                0x0003adac                tagtree_insert_selection_playlist
                0x0003af8c                tagtree_get_entry_name
                0x0003afc4                tagtree_get_title
                0x0003b020                tagtree_get_attr
                0x0003b068                tagtree_get_icon
 .text          0x0003b07c     0x1038 /home/ubuntu/Desktop/RockboxRCC/bu480/apps/filetree.o
                0x0003b248                ft_build_playlist
                0x0003b2e0                ft_play_playlist
                0x0003b3b8                ft_load
                0x0003b968                ft_enter
                0x0003bfa8                ft_exit
 .text          0x0003c0b4      0x594 /home/ubuntu/Desktop/RockboxRCC/bu480/apps/scrobbler.o
                0x0003c49c                scrobbler_init
                0x0003c550                scrobbler_shutdown
                0x0003c634                scrobbler_is_enabled
 .text          0x0003c648      0x1a4 /home/ubuntu/Desktop/RockboxRCC/bu480/apps/screen_access.o
                0x0003c6e0                screen_helper_setfont
                0x0003c7a4                screen_clear_area
 .text          0x0003c7ec      0x6d4 /home/ubuntu/Desktop/RockboxRCC/bu480/apps/gui/icon.o
                0x0003c9d0                screen_put_iconxy
                0x0003cba8                screen_put_icon_with_offset
                0x0003cc88                screen_put_icon
                0x0003ccac                screen_put_cursorxy
                0x0003ccc4                icons_init
                0x0003cda4                get_icon_width
                0x0003ce00                get_icon_height
                0x0003ce6c                get_icon_format
 .text          0x0003cec0     0x136c /home/ubuntu/Desktop/RockboxRCC/bu480/apps/gui/list.o
                0x0003cef0                gui_synclist_keyclick_callback
                0x0003d030                list_init
                0x0003d080                list_display_title
                0x0003d0e0                list_get_nb_lines
                0x0003d134                list_init_item_height
                0x0003d1ec                gui_synclist_hide_selection_marker
                0x0003d1f8                gui_list_get_item_offset
                0x0003d264                gui_synclist_speak_item
                0x0003d2b4                gui_synclist_select_item
                0x0003d4c0                gui_synclist_add_item
                0x0003d4dc                gui_synclist_del_item
                0x0003d514                gui_list_screen_scroll_step
                0x0003d528                gui_list_screen_scroll_out_of_view
                0x0003d53c                gui_synclist_set_title
                0x0003d56c                gui_synclist_set_nb_items
                0x0003d57c                gui_synclist_get_nb_items
                0x0003d584                gui_synclist_get_sel_pos
                0x0003d58c                gui_synclist_set_icon_callback
                0x0003d594                gui_synclist_set_voice_callback
                0x0003d59c                gui_synclist_set_viewport_defaults
                0x0003d60c                gui_synclist_init
                0x0003d6d4                gui_synclist_draw
                0x0003d780                gui_synclist_set_color_callback
                0x0003d788                gui_synclist_limit_scroll
                0x0003d790                gui_synclist_do_button
                0x0003dccc                list_do_action_timeout
                0x0003dd9c                list_do_action
                0x0003ddfc                simplelist_set_line_count
                0x0003de70                simplelist_get_line_count
                0x0003de84                simplelist_addline
                0x0003defc                simplelist_show_list
                0x0003e1d0                simplelist_info_init
 .text          0x0003e22c      0x8d0 /home/ubuntu/Desktop/RockboxRCC/bu480/apps/gui/line.o
                0x0003e9f8                vput_line
                0x0003ead4                put_line
 .text          0x0003eafc     0x1524 /home/ubuntu/Desktop/RockboxRCC/bu480/apps/gui/bitmap/list.o
                0x0003efa4                gui_synclist_scroll_stop
                0x0003eff8                list_draw
                0x0003f9b0                _gui_synclist_stop_kinetic_scrolling
                0x0003fa08                gui_synclist_do_touchscreen
 .text          0x00040020      0xcbc /home/ubuntu/Desktop/RockboxRCC/bu480/apps/gui/bitmap/list-skinned.o
                0x000400b4                skinlist_set_cfg
                0x0004013c                skinlist_get_item_number
                0x00040150                skinlist_get_item_row
                0x00040164                skinlist_get_item_column
                0x00040178                skinlist_get_item_text
                0x000401fc                skinlist_get_item_icon
                0x00040254                skinlist_is_selected_item
                0x00040268                skinlist_get_line_count
                0x000402f8                skinlist_needs_scrollbar
                0x00040310                skinlist_get_scrollbar
                0x00040360                skinlist_get_item
                0x00040410                skinlist_draw
 .text          0x00040cdc     0x1048 /home/ubuntu/Desktop/RockboxRCC/bu480/apps/gui/option_select.o
                0x00041098                option_value_as_int
                0x000410cc                option_get_valuestring
                0x0004137c                option_talk_value
                0x00041534                option_select_next_val
                0x000417e8                option_screen
                0x00041c00                get_setting_info_for_bar
                0x00041ca0                update_setting_value_from_touch
 .text          0x00041d24     0x1614 /home/ubuntu/Desktop/RockboxRCC/bu480/apps/gui/pitchscreen.o
                0x000420a0                gui_syncpitchscreen_run
 .text          0x00043338      0xcac /home/ubuntu/Desktop/RockboxRCC/bu480/apps/gui/quickscreen.o
                0x00043640                is_setting_quickscreenable
                0x0004370c                quick_screen_quick
                0x00043f54                set_as_qs_item
 .text          0x00043fe4      0xcb0 /home/ubuntu/Desktop/RockboxRCC/bu480/apps/gui/folder_select.o
                0x00044a98                load_root
                0x00044ad4                select_paths
                0x00044afc                folder_select
 .text          0x00044c94     0x112c /home/ubuntu/Desktop/RockboxRCC/bu480/apps/gui/wps.o
                0x00045144                wps_default_skin
                0x00045154                pause_action
                0x000451c0                unpause_action
                0x000451dc                ffwd_rew
                0x00045498                wps_do_playpause
                0x000454e4                gui_wps_show
 .text          0x00045dc0      0x58c /home/ubuntu/Desktop/RockboxRCC/bu480/apps/gui/scrollbar.o
                0x00045e9c                gui_scrollbar_draw
                0x00046128                gui_bitmap_scrollbar_draw
                0x000462ac                show_busy_slider
 .text          0x0004634c      0x3fc /home/ubuntu/Desktop/RockboxRCC/bu480/apps/gui/splash.o
                0x00046628                splashf
                0x000466a0                splash
 .text          0x00046748      0x878 /home/ubuntu/Desktop/RockboxRCC/bu480/apps/gui/statusbar.o
                0x00046798                gui_statusbar_draw
                0x00046eac                gui_syncstatusbar_init
                0x00046f0c                gui_syncstatusbar_draw
 .text          0x00046fc0      0x8e8 /home/ubuntu/Desktop/RockboxRCC/bu480/apps/gui/statusbar-skinned.o
                0x00046fc0                sb_set_title_text
                0x00046fe8                sb_skin_has_title
                0x00047004                sb_get_title
                0x0004703c                sb_get_icon
                0x00047078                sb_preproccess
                0x000470a8                sb_set_info_vp
                0x000470c0                sb_postproccess
                0x000471ec                sb_skin_get_info_vp
                0x00047354                sb_get_backdrop
                0x0004737c                sb_skin_update
                0x00047480                do_sbs_update_callback
                0x000474c8                sb_skin_set_update_delay
                0x000474dc                sb_create_from_settings
                0x000477dc                sb_skin_init
                0x000477f4                sb_bypass_touchregions
                0x00047808                sb_touch_to_button
 .text          0x000478a8      0x3d0 /home/ubuntu/Desktop/RockboxRCC/bu480/apps/hosted/android/yesno.o
                0x000478a8                Java_org_rockbox_RockboxYesno_put_1result
                0x000478cc                build_message
                0x000479ec                gui_syncyesno_run
                0x00047c18                yesno_pop
 .text          0x00047c78      0x514 /home/ubuntu/Desktop/RockboxRCC/bu480/apps/hosted/android/notification.o
                0x00048048                notification_init
 .text          0x0004818c      0x744 /home/ubuntu/Desktop/RockboxRCC/bu480/apps/gui/viewport.o
                0x000481c8                viewport_get_nb_lines
                0x000481ec                viewport_point_within_vp
                0x00048244                viewport_set_fullscreen
                0x000482f0                viewport_set_defaults
                0x00048768                viewportmanager_theme_undo
                0x000487b8                viewportmanager_theme_enable
                0x0004883c                viewportmanager_init
                0x00048868                viewportmanager_theme_changed
                0x000488a8                get_viewport_default_colour
 .text          0x000488d0      0x8bc /home/ubuntu/Desktop/RockboxRCC/bu480/apps/gui/skin_engine/skin_backdrops.o
                0x000488d0                skin_backdrop_get_debug
                0x00048920                skin_backdrop_init
                0x00048990                skin_backdrop_assign
                0x00048b38                skin_backdrops_preload
                0x00048d30                skin_backdrop_get_buffer
                0x00048d5c                skin_backdrop_show
                0x00048f28                skin_backdrop_unload
                0x00048fb4                skin_backdrop_load_setting
 .text          0x0004918c     0x10d8 /home/ubuntu/Desktop/RockboxRCC/bu480/apps/gui/skin_engine/skin_display.o
                0x0004918c                skin_update
                0x000491f0                draw_progressbar
                0x00049848                clear_image_pos
                0x00049898                wps_draw_image
                0x00049954                wps_display_images
                0x00049b9c                evaluate_conditional
                0x00049cb8                write_line
                0x0004a0a8                draw_peakmeters
                0x0004a130                skin_has_sbs
                0x0004a16c                skin_wait_for_action
 .text          0x0004a264      0x644 /home/ubuntu/Desktop/RockboxRCC/bu480/apps/gui/skin_engine/skin_engine.o
                0x0004a424                skin_get_num_skins
                0x0004a42c                skin_get_stats
                0x0004a44c                gui_sync_skin_init
                0x0004a4e0                skin_unload_all
                0x0004a4ec                skin_load
                0x0004a680                skin_get_gwps
                0x0004a730                settings_apply_skins
                0x0004a844                skin_get_global_state
                0x0004a860                skin_do_full_update
                0x0004a888                skin_request_full_update
 .text          0x0004a8a8     0x5650 /home/ubuntu/Desktop/RockboxRCC/bu480/apps/gui/skin_engine/skin_parser.o
                0x0004d6b0                skin_find_item
                0x0004f224                get_image_filename
                0x0004f258                skin_data_free_buflib_allocs
                0x0004f460                skin_data_load
 .text          0x0004fef8     0x1ff8 /home/ubuntu/Desktop/RockboxRCC/bu480/apps/gui/skin_engine/skin_render.o
                0x00051648                skin_render_alternator
                0x000518b0                skin_render_viewport
                0x00051be8                skin_render
 .text          0x00051ef0     0x2b70 /home/ubuntu/Desktop/RockboxRCC/bu480/apps/gui/skin_engine/skin_tokens.o
                0x00051ef0                get_dir
                0x0005206c                get_cuesheetid3_token
                0x000521f0                get_id3_token
                0x00052918                get_token_value
 .text          0x00054a60      0x994 /home/ubuntu/Desktop/RockboxRCC/bu480/apps/gui/skin_engine/skin_touchsupport.o
                0x00054a60                skin_disarm_touchregions
                0x00054af0                skin_get_touchaction
 .text          0x000553f4       0x74 /home/ubuntu/Desktop/RockboxRCC/bu480/apps/gui/backdrop.o
                0x000553f4                backdrop_load
                0x0005545c                backdrop_show
 .text          0x00055468      0xfa4 /home/ubuntu/Desktop/RockboxRCC/bu480/apps/recorder/bmp.o
                0x00055468                output_row_8_native
                0x000559f4                read_bmp_fd
                0x000563a4                read_bmp_file
 .text          0x0005640c        0x0 /home/ubuntu/Desktop/RockboxRCC/bu480/apps/recorder/icons.o
 .text          0x0005640c      0x314 /home/ubuntu/Desktop/RockboxRCC/bu480/apps/hosted/android/keyboard.o
                0x0005640c                Java_org_rockbox_RockboxKeyboardInput_put_1result
                0x00056468                kbd_input
                0x00056718                load_kbd
 .text          0x00056720      0xebc /home/ubuntu/Desktop/RockboxRCC/bu480/apps/recorder/peakmeter.o
                0x000568c8                peak_meter_enable
                0x000568dc                peak_meter_db2sample
                0x00056924                peak_meter_get_min
                0x0005698c                peak_meter_get_max
                0x000569f4                peak_meter_get_use_dbfs
                0x00056a08                peak_meter_set_use_dbfs
                0x00056a30                peak_meter_init_range
                0x00056c18                peak_meter_init_times
                0x00056c34                peak_meter_playback
                0x00056c4c                peak_meter_peek
                0x00056d70                peak_meter_set_clip_hold
                0x00056d9c                peak_meter_scale_value
                0x00056e5c                peak_meter_current_vals
                0x00056ec8                peak_meter_screen
                0x0005749c                peak_meter_draw_get_btn
 .text          0x000575dc      0xd78 /home/ubuntu/Desktop/RockboxRCC/bu480/apps/recorder/resize.o
                0x00057e10                recalc_dimension
                0x00057eb4                resize_on_load
 .text          0x00058354     0x2a38 /home/ubuntu/Desktop/RockboxRCC/bu480/apps/recorder/jpeg_load.o
                0x000598e8                clip_jpeg_fd
                0x0005aca4                clip_jpeg_file
                0x0005ad24                read_jpeg_file
                0x0005ad58                read_jpeg_fd
 .text          0x0005ad90      0x500 /home/ubuntu/Desktop/RockboxRCC/bu480/apps/recorder/jpeg_idct_arm.o
                0x0005ad90                jpeg_idct1h
                0x0005adc0                jpeg_idct2v
                0x0005ae0c                jpeg_idct2h
                0x0005ae5c                jpeg_idct4v
                0x0005aed8                jpeg_idct4h
                0x0005af74                jpeg_idct8v
                0x0005b0e8                jpeg_idct8h
 .text          0x0005b290      0x838 /home/ubuntu/Desktop/RockboxRCC/bu480/apps/recorder/albumart.o
                0x0005b374                search_albumart_files
                0x0005b7fc                find_albumart
                0x0005b890                draw_album_art
 .text          0x0005bac8      0xafc /home/ubuntu/Desktop/RockboxRCC/bu480/apps/gui/color_picker.o
                0x0005c09c                set_color
 .text          0x0005c5c4      0x1d4 /home/ubuntu/Desktop/RockboxRCC/bu480/apps/audio_thread.o
                0x0005c654                audio_queue_post
                0x0005c684                audio_queue_send
                0x0005c6b4                audio_status
                0x0005c6c0                audio_error_clear
                0x0005c6c4                audio_init
 .text          0x0005c798     0x15bc /home/ubuntu/Desktop/RockboxRCC/bu480/apps/pcmbuf.o
                0x0005d07c                pcmbuf_write_complete
                0x0005d29c                pcmbuf_monitor_track_change
                0x0005d2dc                pcmbuf_play_start
                0x0005d33c                pcmbuf_play_stop
                0x0005d370                pcmbuf_pause
                0x0005d3a8                pcmbuf_is_crossfade_active
                0x0005d3c4                pcmbuf_start_track_change
                0x0005d5c0                pcmbuf_request_crossfade_enable
                0x0005d5d4                pcmbuf_is_same_size
                0x0005d62c                pcmbuf_free
                0x0005d654                pcmbuf_request_buffer
                0x0005da74                pcmbuf_get_bufsize
                0x0005da88                pcmbuf_used_descs
                0x0005da98                pcmbuf_descs
                0x0005daac                pcmbuf_fade
                0x0005db6c                pcmbuf_fading
                0x0005db88                pcmbuf_soft_mode
                0x0005dc04                pcmbuf_init
                0x0005dc90                pcmbuf_get_position_key
                0x0005dca4                pcmbuf_sync_position_update
                0x0005dcbc                pcmbuf_is_lowdata
                0x0005dd10                pcmbuf_set_low_latency
                0x0005dd24                pcmbuf_update_frequency
                0x0005dd40                pcmbuf_get_frequency
 .text          0x0005dd54      0xa5c /home/ubuntu/Desktop/RockboxRCC/bu480/apps/codec_thread.o
                0x0005e318                get_codec_filename
                0x0005e51c                codec_thread_do_callback
                0x0005e550                codec_thread_init
                0x0005e6b4                codec_thread_get_priority
                0x0005e6d0                codec_thread_set_priority
                0x0005e6f0                codec_load
                0x0005e71c                codec_go
                0x0005e730                codec_seek
                0x0005e744                codec_pause
                0x0005e760                codec_stop
                0x0005e784                codec_unload
                0x0005e79c                codec_loaded
 .text          0x0005e7b0     0x3568 /home/ubuntu/Desktop/RockboxRCC/bu480/apps/playback.o
                0x0005e8e0                playback_voice_event
                0x0005fdc0                audio_track_count
                0x000604b8                audio_buffer_size
                0x000604f0                audio_buffer_available
                0x0006053c                audio_codec_update_elapsed
                0x000605c0                audio_codec_update_offset
                0x000605d8                audio_codec_complete
                0x000605f8                audio_codec_seek_complete
                0x0006060c                audio_pcmbuf_position_callback
                0x0006063c                audio_pcmbuf_sync_position
                0x000608d4                audio_playback_handler
                0x000613e4                audio_pcmbuf_track_change
                0x0006141c                audio_pcmbuf_may_play
                0x00061464                audio_peek_track
                0x000614f0                audio_current_track
                0x00061730                audio_next_track
                0x000617e0                audio_play
                0x000617fc                audio_stop
                0x00061810                audio_pause
                0x00061824                audio_hard_stop
                0x00061868                audio_resume
                0x0006187c                audio_skip
                0x00061954                audio_next
                0x00061964                audio_prev
                0x00061974                audio_next_dir
                0x00061988                audio_prev_dir
                0x0006199c                audio_pre_ff_rewind
                0x000619b0                audio_ff_rewind
                0x000619c4                audio_flush_and_reload_tracks
                0x000619d8                playback_current_aa_hid
                0x00061a4c                playback_claim_aa_slot
                0x00061b70                playback_release_aa_slot
                0x00061ba0                audio_get_file_pos
                0x00061ba8                audio_get_filebuflen
                0x00061bb4                audio_filebufused
                0x00061bc0                audio_set_cuesheet
                0x00061c28                audio_set_crossfade
                0x00061c4c                playback_status
                0x00061c6c                playback_init
 .text          0x00061d18      0x2b0 /home/ubuntu/Desktop/RockboxRCC/bu480/apps/codecs.o
                0x00061dec                codec_get_full_path
                0x00061e10                codec_get_buffer_callback
                0x00061e6c                codec_load_buf
                0x00061ed0                codec_load_file
                0x00061f2c                codec_run_proc
                0x00061f6c                codec_close
 .text          0x00061fc8      0x160 /home/ubuntu/Desktop/RockboxRCC/bu480/apps/beep.o
                0x00062050                beep_play
 .text          0x00062128     0x5d08 /home/ubuntu/Desktop/RockboxRCC/bu480/apps/tagcache.o
                0x0006654c                tagcache_tag_to_str
                0x00066738                tagcache_get_numeric
                0x000667c0                tagcache_check_clauses
                0x00066818                tagcache_search
                0x000669a4                tagcache_find_index
                0x00066a04                tagcache_search_set_uniqbuf
                0x00066a1c                tagcache_search_add_filter
                0x00066a64                tagcache_search_add_clause
                0x00066b60                tagcache_get_next
                0x00066fd8                tagcache_retrieve
                0x000670d0                tagcache_search_finish
                0x0006717c                tagcache_increase_serial
                0x00067210                tagcache_update_numeric
                0x00067234                tagcache_import_changelog
                0x000673a0                tagcache_create_changelog
                0x000675f8                tagcache_screensync_event
                0x00067610                tagcache_screensync_enable
                0x00067624                tagcache_build
                0x00067b74                tagcache_shutdown
                0x00067ba0                tagcache_get_stat
                0x00067bcc                tagcache_start_scan
                0x00067bf0                tagcache_update
                0x00067c30                tagcache_rebuild
                0x00067c58                tagcache_stop_scan
                0x00067c7c                tagcache_init
                0x00067d50                tagcache_is_initialized
                0x00067d64                tagcache_is_fully_initialized
                0x00067d78                tagcache_is_usable
                0x00067db0                tagcache_get_commit_step
                0x00067dc4                tagcache_prepare_shutdown
                0x00067e28                tagcache_get_max_commit_step
 .text          0x00067e30      0x230 /home/ubuntu/Desktop/RockboxRCC/bu480/apps/keymaps/keymap-touchscreen.o
                0x00067e30                get_context_mapping
 .text          0x00068060      0x1cc /home/ubuntu/Desktop/RockboxRCC/bu480/apps/keymaps/keymap-android.o
                0x00068060                target_get_context_mapping
 .text          0x0006822c        0x0 /home/ubuntu/Desktop/RockboxRCC/bu480/apps/bitmaps/mono/default_icons.o
 .text          0x0006822c        0x0 /home/ubuntu/Desktop/RockboxRCC/bu480/apps/bitmaps/native/rockboxlogo.480x149x16.o
 .text          0x0006822c        0x0 /home/ubuntu/Desktop/RockboxRCC/bu480/apps/bitmaps/native/usblogo.176x48x16.o
 .text          0x0006822c        0x0 /home/ubuntu/Desktop/RockboxRCC/bu480/lang/lang_core.o
 .text          0x0006822c       0x14 /home/ubuntu/Desktop/RockboxRCC/bu480/firmware/libfirmware.a(ata_idle_notify.o)
                0x0006822c                register_storage_idle_func
 .text          0x00068240      0x1bc /home/ubuntu/Desktop/RockboxRCC/bu480/firmware/libfirmware.a(events.o)
                0x00068240                add_event
                0x0006831c                remove_event
                0x00068390                send_event
 .text          0x000683fc       0x14 /home/ubuntu/Desktop/RockboxRCC/bu480/firmware/libfirmware.a(backlight.o)
                0x000683fc                backlight_on
                0x00068400                backlight_off
                0x00068404                backlight_set_timeout
                0x00068408                is_backlight_on
 .text          0x00068410      0xde0 /home/ubuntu/Desktop/RockboxRCC/bu480/firmware/libfirmware.a(buflib.o)
                0x000687f8                buflib_init
                0x00068838                buflib_context_relocate
                0x000688c8                buflib_buffer_out
                0x0006892c                buflib_buffer_in
                0x00068940                buflib_allocatable
                0x000689fc                buflib_available
                0x00068a5c                buflib_get_name
                0x00068c00                buflib_alloc_ex
                0x00068e78                buflib_alloc
                0x00068e94                buflib_alloc_maximum
                0x00068f28                buflib_shrink
                0x0006906c                buflib_free
                0x0006912c                buflib_get_num_blocks
                0x00069168                buflib_print_block_at
 .text          0x000691f0      0x250 /home/ubuntu/Desktop/RockboxRCC/bu480/firmware/libfirmware.a(core_alloc.o)
                0x000691f0                core_alloc
                0x0006921c                core_allocator_init
                0x00069290                core_alloc_ex
                0x000692c0                core_available
                0x000692e4                core_allocatable
                0x00069308                core_free
                0x00069330                core_test_free
                0x00069374                core_alloc_maximum
                0x000693ac                core_shrink
                0x000693e4                core_get_num_blocks
                0x00069408                core_print_block_at
 .text          0x00069440      0x410 /home/ubuntu/Desktop/RockboxRCC/bu480/firmware/libfirmware.a(general.o)
                0x00069440                round_value_to_list32
                0x000694e0                make_list_from_caps32
                0x00069544                create_numbered_filename
                0x000696bc                create_datetime_filename
                0x000697ec                find_array_ptr
                0x00069818                remove_array_ptr
 .text          0x00069850      0x5b4 /home/ubuntu/Desktop/RockboxRCC/bu480/firmware/libfirmware.a(powermgmt.o)
                0x000698c8                _battery_voltage
                0x000698d0                _battery_time
                0x000698d8                battery_read_info
                0x000699d4                get_battery_capacity
                0x000699dc                battery_time
                0x000699e4                battery_level
                0x00069a04                battery_level_safe
                0x00069a0c                query_force_shutdown
                0x00069a14                battery_voltage
                0x00069a1c                powermgmt_init
                0x00069a6c                shutdown_hw
                0x00069a98                set_poweroff_timeout
                0x00069aac                reset_poweroff_timer
                0x00069b24                sys_poweroff
                0x00069b64                cancel_shutdown
                0x00069b7c                send_battery_level_event
                0x00069bf8                set_sleeptimer_duration
                0x00069c0c                get_sleep_timer
                0x00069c90                set_keypress_restarts_sleep_timer
                0x00069ca4                handle_auto_poweroff
 .text          0x00069e04      0x440 /home/ubuntu/Desktop/RockboxRCC/bu480/firmware/libfirmware.a(cpuinfo-linux.o)
                0x00069ed4                cpuusage_linux
                0x0006a08c                cpucount_linux
                0x0006a098                frequency_linux
                0x0006a140                cpustatetimes_linux
 .text          0x0006a244       0x20 /home/ubuntu/Desktop/RockboxRCC/bu480/firmware/libfirmware.a(usb.o)
                0x0006a244                usb_inserted
                0x0006a24c                usb_acknowledge
                0x0006a250                usb_init
                0x0006a254                usb_start_monitoring
                0x0006a258                usb_detect
                0x0006a260                usb_wait_for_disconnect
 .text          0x0006a264      0xbf4 /home/ubuntu/Desktop/RockboxRCC/bu480/firmware/libfirmware.a(kernel.o)
                0x0006a304                kernel_init
                0x0006a374                tick_add_task
                0x0006a3c8                tick_remove_task
                0x0006a3f0                timeout_cancel
                0x0006a4d4                timeout_register
                0x0006a580                sleep
                0x0006a594                yield
                0x0006a5a0                queue_enable_queue_send
                0x0006a618                queue_init
                0x0006a688                queue_delete
                0x0006a6fc                queue_wait
                0x0006a7b0                queue_wait_w_tmo
                0x0006a8a0                queue_post
                0x0006a8f4                queue_send
                0x0006a99c                queue_reply
                0x0006a9e0                queue_peek_ex
                0x0006abac                queue_peek
                0x0006abc0                queue_remove_from_head
                0x0006ac00                queue_empty
                0x0006ac18                queue_clear
                0x0006ac30                queue_count
                0x0006ac40                queue_broadcast
                0x0006acb8                mutex_init
                0x0006acf4                mutex_lock
                0x0006ad48                mutex_unlock
                0x0006ad9c                semaphore_init
                0x0006adb0                semaphore_wait
                0x0006ae20                semaphore_release
 .text          0x0006ae58      0x104 /home/ubuntu/Desktop/RockboxRCC/bu480/firmware/libfirmware.a(panic.o)
                0x0006ae58                panicf
                0x0006ae60                panicf_f
 .text          0x0006af5c        0x0 /home/ubuntu/Desktop/RockboxRCC/bu480/firmware/libfirmware.a(version.o)
 .text          0x0006af5c       0x54 /home/ubuntu/Desktop/RockboxRCC/bu480/firmware/libfirmware.a(crc32.o)
                0x0006af5c                crc_32
 .text          0x0006afb0       0x4c /home/ubuntu/Desktop/RockboxRCC/bu480/firmware/libfirmware.a(filefuncs.o)
                0x0006afb0                file_exists
                0x0006afd8                dir_exists
 .text          0x0006affc      0x7a8 /home/ubuntu/Desktop/RockboxRCC/bu480/firmware/libfirmware.a(format.o)
                0x0006b040                format
                0x0006b74c                fdprintf
                0x0006b798                vuprintf
 .text          0x0006b7a4      0x2fc /home/ubuntu/Desktop/RockboxRCC/bu480/firmware/libfirmware.a(rbpaths.o)
                0x0006b928                paths_init
                0x0006b950                app_open
                0x0006b9a8                app_creat
                0x0006b9c0                app_remove
                0x0006b9e4                app_rename
                0x0006ba34                app_opendir
                0x0006ba58                app_mkdir
                0x0006ba7c                app_rmdir
 .text          0x0006baa0       0xc0 /home/ubuntu/Desktop/RockboxRCC/bu480/firmware/libfirmware.a(strcasecmp.o)
                0x0006baa0                strcasecmp
                0x0006bb10                strncasecmp
 .text          0x0006bb60      0x1d4 /home/ubuntu/Desktop/RockboxRCC/bu480/firmware/libfirmware.a(strcasestr.o)
                0x0006bb60                strcasestr
 .text          0x0006bd34      0x230 /home/ubuntu/Desktop/RockboxRCC/bu480/firmware/libfirmware.a(strnatcmp.o)
                0x0006bf44                strnatcmp
                0x0006bf54                strnatcasecmp
 .text          0x0006bf64       0xbc /home/ubuntu/Desktop/RockboxRCC/bu480/firmware/libfirmware.a(strlcat.o)
                0x0006bf64                strlcat
 .text          0x0006c020       0x5c /home/ubuntu/Desktop/RockboxRCC/bu480/firmware/libfirmware.a(strlcpy.o)
                0x0006c020                strlcpy
 .text          0x0006c07c      0x24c /home/ubuntu/Desktop/RockboxRCC/bu480/firmware/libfirmware.a(structec.o)
                0x0006c0d4                structec_convert
                0x0006c184                ecread
                0x0006c1d0                ecwrite
 .text          0x0006c2c8      0x214 /home/ubuntu/Desktop/RockboxRCC/bu480/firmware/libfirmware.a(timefuncs.o)
                0x0006c2c8                valid_time
                0x0006c368                set_time
                0x0006c394                set_day_of_week
                0x0006c42c                get_time
 .text          0x0006c4dc      0x618 /home/ubuntu/Desktop/RockboxRCC/bu480/firmware/libfirmware.a(unicode.o)
                0x0006c4dc                utf8encode
                0x0006c590                iso_decode
                0x0006c840                utf16LEdecode
                0x0006c8b8                utf16BEdecode
                0x0006c934                utf8length
                0x0006c95c                utf8decode
                0x0006ca6c                set_codepage
                0x0006ca80                utf8seek
                0x0006cac4                get_codepage_name
 .text          0x0006caf4      0x508 /home/ubuntu/Desktop/RockboxRCC/bu480/firmware/libfirmware.a(scroll_engine.o)
                0x0006caf4                lcd_scroll_stop
                0x0006cb64                lcd_scroll_stop_viewport_rect
                0x0006cc7c                lcd_scroll_stop_viewport
                0x0006cca4                lcd_scroll_speed
                0x0006ccd4                lcd_scroll_step
                0x0006ccf4                lcd_scroll_delay
                0x0006cd28                lcd_bidir_scroll
                0x0006cd48                lcd_scroll_now
                0x0006cfa8                scroll_init
 .text          0x0006cffc      0x57c /home/ubuntu/Desktop/RockboxRCC/bu480/firmware/libfirmware.a(bidi.o)
                0x0006cffc                bidi_l2v
 .text          0x0006d578     0x1468 /home/ubuntu/Desktop/RockboxRCC/bu480/firmware/libfirmware.a(font.o)
                0x0006d98c                font_lock
                0x0006d9bc                font_init
                0x0006d9e8                font_filename
                0x0006db30                font_unload
                0x0006dbe4                font_unload_all
                0x0006dc50                font_disable_all
                0x0006dce0                font_enable_all
                0x0006dd78                font_get
                0x0006de28                font_get_width
                0x0006defc                font_get_bits
                0x0006e008                font_load_ex
                0x0006e900                font_load
                0x0006e918                font_getstringsize
 .text          0x0006e9e0      0x1d4 /home/ubuntu/Desktop/RockboxRCC/bu480/firmware/libfirmware.a(lru.o)
                0x0006e9e0                lru_create
                0x0006ea7c                lru_traverse
                0x0006eadc                lru_touch
                0x0006eba0                lru_data
 .text          0x0006ebb4      0x138 /home/ubuntu/Desktop/RockboxRCC/bu480/firmware/libfirmware.a(screendump.o)
                0x0006ebb4                screen_dump
                0x0006ecd8                screen_dump_set_hook
 .text          0x0006ecec     0x2c88 /home/ubuntu/Desktop/RockboxRCC/bu480/firmware/libfirmware.a(lcd-16bit.o)
                0x0006f490                lcd_clear_viewport
                0x0006f5e4                lcd_set_drawmode
                0x0006f600                lcd_get_drawmode
                0x0006f618                lcd_set_foreground
                0x0006f630                lcd_get_foreground
                0x0006f648                lcd_set_background
                0x0006f660                lcd_get_background
                0x0006f678                lcd_set_drawinfo
                0x0006f6a4                lcd_getwidth
                0x0006f6bc                lcd_getheight
                0x0006f6d4                lcd_setfont
                0x0006f6ec                lcd_getfont
                0x0006f704                lcd_getstringsize
                0x0006f724                lcd_set_backdrop
                0x0006f7bc                lcd_get_backdrop
                0x0006f7d0                lcd_clear_display
                0x0006f800                lcd_init
                0x0006f814                lcd_drawpixel
                0x0006f898                lcd_fillrect
                0x0006fa5c                lcd_mono_bitmap_part
                0x0006fd88                lcd_mono_bitmap
                0x0006fdb8                lcd_alpha_bitmap_part
                0x000701ec                lcd_scroll_fn
                0x00070530                lcd_yuv_set_options
                0x00070534                lcd_blit_yuv
                0x000708dc                lcd_set_framebuffer
                0x00070920                lcd_fill_viewport
                0x0007094c                lcd_set_viewport
                0x000709b0                lcd_get_viewport
                0x000709e4                lcd_update_viewport
                0x00070a10                lcd_update_viewport_rect
                0x00070a3c                lcd_putsxy
                0x00070a50                lcd_putsxyf
                0x00070aa0                lcd_puts
                0x00070aec                lcd_putsf
                0x00070b3c                lcd_putsxy_scroll_func
                0x00070b8c                lcd_puts_scroll
                0x00070bcc                lcd_hline
                0x00070d24                lcd_gradient_fillrect_part
                0x00070ec0                lcd_gradient_fillrect
                0x00070ef0                lcd_vline
                0x00070fb8                lcd_drawline
                0x00071198                lcd_drawrect
                0x00071204                lcd_draw_border_viewport
                0x00071230                lcd_bitmap_part
                0x00071358                lcd_bitmap
                0x00071388                lcd_bitmap_transparent_part
                0x000714ec                lcd_bitmap_transparent
                0x0007151c                lcd_bmp_part
                0x000715f8                lcd_bmp
                0x0007162c                lcd_nine_segment_bmp
 .text          0x00071974      0x198 /home/ubuntu/Desktop/RockboxRCC/bu480/firmware/libfirmware.a(diacritic.o)
                0x00071974                is_diacritic
 .text          0x00071b0c       0xbc /home/ubuntu/Desktop/RockboxRCC/bu480/firmware/libfirmware.a(led.o)
                0x00071b0c                led
                0x00071b6c                led_read
 .text          0x00071bc8      0x5f8 /home/ubuntu/Desktop/RockboxRCC/bu480/firmware/libfirmware.a(button.o)
                0x00071fc0                button_queue_count
                0x00071fe4                button_get
                0x00072058                button_get_w_tmo
                0x000720b8                button_get_data
                0x000720cc                button_init
                0x0007214c                button_status
                0x00072160                button_status_wdata
                0x0007217c                button_clear_queue
                0x000721a0                touchscreen_last_touch
                0x000721b4                button_enable_touch
 .text          0x000721c0      0x3e4 /home/ubuntu/Desktop/RockboxRCC/bu480/firmware/libfirmware.a(touchscreen.o)
                0x000721c0                touchscreen_disable_mapping
                0x00072200                touchscreen_reset_mapping
                0x00072240                touchscreen_calibrate
                0x000723cc                touchscreen_to_pixels
                0x00072534                touchscreen_set_mode
                0x00072548                touchscreen_get_mode
                0x0007255c                touchscreen_enable
                0x00072590                touchscreen_is_enabled
 .text          0x000725a4      0x3c0 /home/ubuntu/Desktop/RockboxRCC/bu480/firmware/libfirmware.a(sound.o)
                0x000725f0                sound_set_channels
                0x00072620                sound_set_stereo_width
                0x00072650                sound_val2phys
                0x00072658                sound_unit
                0x0007266c                sound_numdecimals
                0x000726d4                sound_steps
                0x000726e8                sound_min
                0x000726fc                sound_max
                0x00072780                sound_set_volume
                0x000727cc                sound_set_balance
                0x0007280c                sound_set_bass
                0x00072860                sound_set_treble
                0x000728b4                sound_default
                0x000728c8                sound_get_fn
                0x000728d8                sound_set
                0x000728f8                sound_set_pitch
                0x00072928                sound_get_pitch
 .text          0x00072964        0x0 /home/ubuntu/Desktop/RockboxRCC/bu480/firmware/libfirmware.a(pcm_sampr.o)
 .text          0x00072964      0x6a8 /home/ubuntu/Desktop/RockboxRCC/bu480/firmware/libfirmware.a(pcm.o)
                0x00072964                pcm_play_stop_int
                0x000729c0                pcm_play_dma_complete_callback
                0x00072a78                pcm_do_peak_calculation
                0x00072b78                pcm_calculate_peaks
                0x00072c2c                pcm_get_peak_buffer
                0x00072c38                pcm_is_playing
                0x00072c58                pcm_is_paused
                0x00072c78                pcm_postinit
                0x00072c98                pcm_is_initialized
                0x00072cac                pcm_play_stop
                0x00072ce4                pcm_set_frequency
                0x00072d50                pcm_init
                0x00072d68                pcm_get_frequency
                0x00072d88                pcm_apply_settings
                0x00072ef8                pcm_play_data
                0x00072f50                pcm_play_pause
 .text          0x0007300c      0x884 /home/ubuntu/Desktop/RockboxRCC/bu480/firmware/libfirmware.a(pcm_mixer.o)
                0x00073440                mixer_channel_play_data
                0x00073580                mixer_channel_play_pause
                0x00073614                mixer_channel_stop
                0x00073664                mixer_channel_set_amplitude
                0x00073688                mixer_channel_status
                0x000736a4                mixer_channel_get_bytes_waiting
                0x000736c0                mixer_channel_get_buffer
                0x00073704                mixer_channel_calculate_peaks
                0x00073758                mixer_adjust_channel_address
                0x00073798                mixer_channel_set_buffer_hook
                0x000737c8                mixer_reset
                0x0007383c                mixer_set_frequency
                0x0007387c                mixer_get_frequency
 .text          0x00073890       0x64 /home/ubuntu/Desktop/RockboxRCC/bu480/firmware/libfirmware.a(audiohw-swcodec.o)
                0x00073890                audiohw_set_channel
                0x0007389c                audiohw_set_stereo_width
                0x000738a8                audiohw_set_bass
                0x000738bc                audiohw_set_treble
                0x000738d0                audiohw_set_prescaler
                0x000738dc                audiohw_set_pitch
                0x000738e8                audiohw_get_pitch
 .text          0x000738f4      0x3bc /home/ubuntu/Desktop/RockboxRCC/bu480/firmware/libfirmware.a(kernel-unix.o)
                0x00073924                wait_for_interrupt
                0x00073944                interrupt
                0x0007395c                timer_signal
                0x000739bc                tick_start
                0x00073a9c                timer_register
                0x00073c00                timer_set_period
                0x00073c80                timer_unregister
 .text          0x00073cb0      0x20c /home/ubuntu/Desktop/RockboxRCC/bu480/firmware/libfirmware.a(filesystem-unix.o)
                0x00073cb0                filesize
                0x00073cd4                fat_size
                0x00073ce4                _opendir
                0x00073d48                _mkdir
                0x00073d5c                _closedir
                0x00073d80                _readdir
                0x00073d90                dir_get_info
 .text          0x00073ebc       0x5c /home/ubuntu/Desktop/RockboxRCC/bu480/firmware/libfirmware.a(lc-unix.o)
                0x00073ebc                lc_open
                0x00073ecc                lc_get_header
                0x00073f04                lc_close
                0x00073f10                lc_open_from_mem
 .text          0x00073f18      0x4c8 /home/ubuntu/Desktop/RockboxRCC/bu480/firmware/libfirmware.a(lcd-android.o)
                0x00073f18                lcd_init_device
                0x00073f1c                lcd_update
                0x00073fc0                lcd_update_rect
                0x000740f0                Java_org_rockbox_RockboxFramebuffer_surfaceCreated
                0x00074358                Java_org_rockbox_RockboxFramebuffer_surfaceDestroyed
                0x000743a4                lcd_active
                0x000743b8                lcd_get_dpi
                0x000743cc                touchscreen_get_scroll_threshold
 .text          0x000743e0      0x230 /home/ubuntu/Desktop/RockboxRCC/bu480/firmware/libfirmware.a(button-android.o)
                0x000743e0                Java_org_rockbox_RockboxFramebuffer_touchHandler
                0x00074430                Java_org_rockbox_RockboxFramebuffer_buttonHandler
                0x00074514                button_init_device
                0x000745a4                touchscreen_enable_device
                0x000745a8                button_read_device
                0x000745e0                Java_org_rockbox_monitors_HeadphoneMonitor_postHpStateChanged
                0x000745f4                headphones_inserted
 .text          0x00074610      0x5e8 /home/ubuntu/Desktop/RockboxRCC/bu480/firmware/libfirmware.a(pcm-android.o)
                0x00074610                Java_org_rockbox_RockboxPCM_nativeWrite
                0x00074894                pcm_play_lock
                0x000748cc                pcm_play_unlock
                0x00074904                pcm_dma_apply_settings
                0x00074908                pcm_play_dma_stop
                0x00074934                pcm_play_dma_pause
                0x0007497c                pcm_play_dma_start
                0x000749a0                pcm_get_bytes_waiting
                0x000749b4                pcm_play_dma_get_peak_buffer
                0x000749dc                pcm_play_dma_init
                0x00074b24                pcm_play_dma_postinit
                0x00074b28                pcm_set_mixer_volume
                0x00074b70                pcm_shutdown
                0x00074be4                Java_org_rockbox_RockboxPCM_postVolumeChangedEvent
 .text          0x00074bf8      0x110 /home/ubuntu/Desktop/RockboxRCC/bu480/firmware/libfirmware.a(powermgmt-android.o)
                0x00074bf8                _battery_level
 .text          0x00074d08      0x218 /home/ubuntu/Desktop/RockboxRCC/bu480/firmware/libfirmware.a(system-android.o)
                0x00074d08                system_exception_wait
                0x00074d34                power_off
                0x00074d4c                system_reboot
                0x00074d58                system_init
                0x00074d64                JNI_OnLoad
                0x00074d80                getJavaEnvironment
                0x00074dbc                Java_org_rockbox_RockboxService_main
                0x00074e80                is_rockbox_ready
                0x00074e94                wait_rockbox_ready
                0x00074ee8                set_rockbox_ready
 .text          0x00074f20       0xcc /home/ubuntu/Desktop/RockboxRCC/bu480/firmware/libfirmware.a(telephony-android.o)
                0x00074f20                telephony_init_device
                0x00074fac                Java_org_rockbox_monitors_TelephonyMonitor_postCallIncoming
                0x00074fcc                Java_org_rockbox_monitors_TelephonyMonitor_postCallHungUp
 .text          0x00074fec      0x1a8 /home/ubuntu/Desktop/RockboxRCC/bu480/firmware/libfirmware.a(button-application.o)
                0x00074fec                android_ignore_back_button
                0x00075000                key_to_button
                0x000750bc                multimedia_to_button
                0x0007513c                dpad_to_button
 .text          0x00075194       0x1c /home/ubuntu/Desktop/RockboxRCC/bu480/firmware/libfirmware.a(android.o)
                0x00075194                audiohw_set_volume
                0x000751a0                audiohw_set_balance
                0x000751a4                audiohw_close
 .text          0x000751b0     0x14f8 /home/ubuntu/Desktop/RockboxRCC/bu480/firmware/libfirmware.a(thread.o)
                0x000754b8                wakeup_priority_protocol_release
                0x00075648                wakeup_priority_protocol_transfer
                0x00075794                check_tmo_threads
                0x000758d4                sleep_thread
                0x000759b4                block_thread
                0x00075a48                block_thread_w_tmo
                0x00075b44                wakeup_thread
                0x00075bfc                thread_queue_wake
                0x00075c24                thread_id_entry
                0x00075c4c                thread_self
                0x00075c64                thread_self_entry
                0x00075c78                core_idle
                0x00075c84                create_thread
                0x00075e14                thread_set_priority
                0x000760bc                thread_get_priority
                0x000760f4                thread_thaw
                0x00076120                init_threads
                0x00076290                thread_stack_usage
                0x00076318                thread_get_name
                0x000763b0                switch_thread
                0x00076500                thread_wait
                0x000765b0                thread_exit
 .text          0x000766a8        0x0 /home/ubuntu/Desktop/RockboxRCC/bu480/firmware/libfirmware.a(sysfont.o)
 .text          0x000766a8       0x14 /home/ubuntu/Desktop/RockboxRCC/bu480/firmware/libfirmware.a(ffs.o)
                0x000766a8                find_first_set_bit
 .text          0x000766bc        0x0 /home/ubuntu/Desktop/RockboxRCC/bu480/firmware/libfirmware.a(memset16.o)
 .text          0x000766bc       0x5c /home/ubuntu/Desktop/RockboxRCC/bu480/firmware/libfirmware.a(rtc.o)
                0x000766bc                rtc_init
                0x000766c0                rtc_read_datetime
                0x00076710                rtc_write_datetime
 .text          0x00076718        0x0 /home/ubuntu/Desktop/RockboxRCC/bu480/firmware/libfirmware.a(arabjoin.o)
 .text          0x00076718      0x36c /home/ubuntu/Desktop/RockboxRCC/bu480/firmware/libfirmware.a(font_cache.o)
                0x000767c8                font_cache_create
                0x00076874                font_cache_get
 .text          0x00076a84      0x198 /home/ubuntu/Desktop/RockboxRCC/bu480/lib/rbcodec/codecs/libspeex-voice.a(bits.o)
                0x00076a84                speex_bits_set_bit_buffer
                0x00076aac                speex_bits_unpack_unsigned
                0x00076b54                speex_bits_peek
                0x00076ba4                speex_bits_advance
                0x00076bf8                speex_bits_remaining
 .text          0x00076c1c       0x98 /home/ubuntu/Desktop/RockboxRCC/bu480/lib/rbcodec/codecs/libspeex-voice.a(modes_wb.o)
                0x00076c1c                wb_mode_query
                0x00076c84                speex_lib_get_mode
 .text          0x00076cb4      0x38c /home/ubuntu/Desktop/RockboxRCC/bu480/lib/rbcodec/codecs/libspeex-voice.a(quant_lsp.o)
                0x00076cb4                lsp_unquant_nb
                0x00076e48                lsp_unquant_lbr
                0x00076f54                lsp_unquant_high
 .text          0x00077040     0x1070 /home/ubuntu/Desktop/RockboxRCC/bu480/lib/rbcodec/codecs/libspeex-voice.a(sb_celp.o)
                0x00077040                sb_decoder_init
                0x00077124                sb_decoder_destroy
                0x00077134                sb_decode
                0x00077ba4                sb_decoder_ctl
 .text          0x000780b0      0x160 /home/ubuntu/Desktop/RockboxRCC/bu480/lib/rbcodec/codecs/libspeex-voice.a(speex.o)
                0x000780b0                speex_decoder_init
                0x000780c0                speex_decoder_destroy
                0x000780d4                speex_decode_native
                0x000780e8                speex_decode_int
                0x000780fc                speex_decoder_ctl
                0x00078110                nb_mode_query
                0x00078174                speex_lib_ctl
 .text          0x00078210      0x3b0 /home/ubuntu/Desktop/RockboxRCC/bu480/lib/rbcodec/codecs/libspeex-voice.a(filters_arm4.o)
                0x00078210                iir_mem16
                0x000783b0                qmf_synth
                0x00078578                signal_mul
 .text          0x000785c0      0x1dc /home/ubuntu/Desktop/RockboxRCC/bu480/lib/rbcodec/codecs/libspeex-voice.a(cb_search.o)
                0x000785c0                split_cb_shape_sign_unquant
                0x00078740                noise_codebook_unquant
 .text          0x0007879c     0x1090 /home/ubuntu/Desktop/RockboxRCC/bu480/lib/rbcodec/codecs/libspeex-voice.a(filters.o)
                0x000789f8                normalize16
                0x00078aa8                bw_lpc
                0x00078af8                sanitize_values32
                0x00078b2c                highpass
                0x00078c44                compute_rms16
                0x00078f70                multicomb
 .text          0x0007982c        0x0 /home/ubuntu/Desktop/RockboxRCC/bu480/lib/rbcodec/codecs/libspeex-voice.a(hexc_10_32_table.o)
 .text          0x0007982c        0x0 /home/ubuntu/Desktop/RockboxRCC/bu480/lib/rbcodec/codecs/libspeex-voice.a(hexc_table.o)
 .text          0x0007982c        0x0 /home/ubuntu/Desktop/RockboxRCC/bu480/lib/rbcodec/codecs/libspeex-voice.a(high_lsp_tables.o)
 .text          0x0007982c      0x664 /home/ubuntu/Desktop/RockboxRCC/bu480/lib/rbcodec/codecs/libspeex-voice.a(lsp.o)
                0x0007982c                lsp_to_lpc
                0x00079c8c                lsp_enforce_margin
                0x00079d38                lsp_interpolate
 .text          0x00079e90        0x0 /home/ubuntu/Desktop/RockboxRCC/bu480/lib/rbcodec/codecs/libspeex-voice.a(lsp_tables_nb.o)
 .text          0x00079e90      0x5fc /home/ubuntu/Desktop/RockboxRCC/bu480/lib/rbcodec/codecs/libspeex-voice.a(ltp.o)
                0x00079e90                inner_prod
                0x00079f30                pitch_xcorr
                0x0007a0ac                pitch_unquant_3tap
                0x0007a410                forced_pitch_unquant
 .text          0x0007a48c       0x14 /home/ubuntu/Desktop/RockboxRCC/bu480/lib/rbcodec/codecs/libspeex-voice.a(modes.o)
                0x0007a48c                speex_mode_query
 .text          0x0007a4a0     0x1914 /home/ubuntu/Desktop/RockboxRCC/bu480/lib/rbcodec/codecs/libspeex-voice.a(nb_celp.o)
                0x0007a4a0                nb_decoder_init
                0x0007a604                nb_decoder_destroy
                0x0007a608                nb_decode
                0x0007b94c                nb_decoder_ctl
 .text          0x0007bdb4       0xb8 /home/ubuntu/Desktop/RockboxRCC/bu480/lib/rbcodec/codecs/libspeex-voice.a(speex_callbacks.o)
                0x0007bdb4                speex_inband_handler
                0x0007be44                speex_default_user_handler
 .text          0x0007be6c        0x0 /home/ubuntu/Desktop/RockboxRCC/bu480/lib/rbcodec/codecs/libspeex-voice.a(exc_10_16_table.o)
 .text          0x0007be6c        0x0 /home/ubuntu/Desktop/RockboxRCC/bu480/lib/rbcodec/codecs/libspeex-voice.a(exc_10_32_table.o)
 .text          0x0007be6c        0x0 /home/ubuntu/Desktop/RockboxRCC/bu480/lib/rbcodec/codecs/libspeex-voice.a(exc_20_32_table.o)
 .text          0x0007be6c        0x0 /home/ubuntu/Desktop/RockboxRCC/bu480/lib/rbcodec/codecs/libspeex-voice.a(exc_5_256_table.o)
 .text          0x0007be6c        0x0 /home/ubuntu/Desktop/RockboxRCC/bu480/lib/rbcodec/codecs/libspeex-voice.a(exc_5_64_table.o)
 .text          0x0007be6c        0x0 /home/ubuntu/Desktop/RockboxRCC/bu480/lib/rbcodec/codecs/libspeex-voice.a(exc_8_128_table.o)
 .text          0x0007be6c        0x0 /home/ubuntu/Desktop/RockboxRCC/bu480/lib/rbcodec/codecs/libspeex-voice.a(gain_table.o)
 .text          0x0007be6c        0x0 /home/ubuntu/Desktop/RockboxRCC/bu480/lib/rbcodec/codecs/libspeex-voice.a(gain_table_lbr.o)
 .text          0x0007be6c      0x6b4 /home/ubuntu/Desktop/RockboxRCC/bu480/lib/librbcodec.a(metadata.o)
                0x0007bedc                get_audio_base_codec_type
                0x0007bfcc                rbcodec_format_is_atomic
                0x0007c0a8                format_buffers_with_offset
                0x0007c0d0                probe_file_format
                0x0007c160                strip_tags
                0x0007c220                adjust_mp3entry
                0x0007c2f8                copy_mp3entry
                0x0007c324                wipe_mp3entry
                0x0007c33c                get_metadata
                0x0007c450                mp3info
                0x0007c4a0                fill_metadata_from_path
 .text          0x0007c520     0x16d0 /home/ubuntu/Desktop/RockboxRCC/bu480/lib/librbcodec.a(id3tags.o)
                0x0007cad4                id3_get_num_genre
                0x0007cba0                setid3v1title
                0x0007cda8                setid3v2title
                0x0007db30                getid3v2len
 .text          0x0007dbf0      0x224 /home/ubuntu/Desktop/RockboxRCC/bu480/lib/librbcodec.a(mp3.o)
                0x0007dbf0                get_mp3_metadata
 .text          0x0007de14      0xf88 /home/ubuntu/Desktop/RockboxRCC/bu480/lib/librbcodec.a(mp3data.o)
                0x0007e39c                bytes2int
                0x0007e3bc                find_next_frame
                0x0007e3e8                mem_find_next_frame
                0x0007e440                get_mp3file_info
                0x0007e83c                count_mp3_frames
                0x0007e9a4                create_xing_header
 .text          0x0007ed9c      0x1cc /home/ubuntu/Desktop/RockboxRCC/bu480/lib/librbcodec.a(channel_mode.o)
                0x0007ed9c                channel_mode_proc_swap
                0x0007edcc                channel_mode_proc_mono_left
                0x0007edec                channel_mode_proc_mono_right
                0x0007ee90                channel_mode_set_config
                0x0007eee4                channel_mode_custom_set_width
 .text          0x0007ef68      0xa48 /home/ubuntu/Desktop/RockboxRCC/bu480/lib/librbcodec.a(compressor.o)
                0x0007f384                get_lpf_coeff
                0x0007f3a4                get_att_rls_coeff
                0x0007f970                dsp_set_compressor
 .text          0x0007f9b0      0x3b4 /home/ubuntu/Desktop/RockboxRCC/bu480/lib/librbcodec.a(crossfeed.o)
                0x0007fc98                dsp_set_crossfeed_type
                0x0007fce4                dsp_set_crossfeed_direct_gain
                0x0007fd14                dsp_set_crossfeed_cross_params
 .text          0x0007fd64      0x9d8 /home/ubuntu/Desktop/RockboxRCC/bu480/lib/librbcodec.a(emu10k_space80.o)
                0x0007fd64                space80_process
                0x00080680                dsp_set_space80_enable
                0x000806b0                dsp_set_space80_params
 .text          0x0008073c      0x874 /home/ubuntu/Desktop/RockboxRCC/bu480/lib/librbcodec.a(dsp_core.o)
                0x00080824                dsp_proc_enabled
                0x0008083c                dsp_proc_activate
                0x000808b0                dsp_proc_enable
                0x00080b38                dsp_proc_active
                0x00080b50                dsp_proc_want_format_update
                0x00080b68                dsp_proc_set_in_place
                0x00080bb0                dsp_process
                0x00080d90                dsp_configure
                0x00080e6c                dsp_get_config
                0x00080e98                dsp_get_id
                0x00080ec8                dsp_init
 .text          0x00080fb0      0x5e4 /home/ubuntu/Desktop/RockboxRCC/bu480/lib/librbcodec.a(dsp_filter.o)
                0x00080fb0                filter_shelf_coefs
                0x000810b8                filter_bishelf_coefs
                0x000811ac                filter_pk_coefs
                0x000812b0                filter_ls_coefs
                0x00081404                filter_hs_coefs
                0x0008155c                filter_copy
                0x0008157c                filter_flush
 .text          0x00081594      0x38c /home/ubuntu/Desktop/RockboxRCC/bu480/lib/librbcodec.a(dsp_misc.o)
                0x0008185c                dsp_replaygain_set_settings
                0x00081878                dsp_set_pitch
                0x000818c0                dsp_get_pitch
                0x000818d4                dsp_set_all_output_frequency
                0x0008190c                dsp_get_output_frequency
 .text          0x00081920      0x52c /home/ubuntu/Desktop/RockboxRCC/bu480/lib/librbcodec.a(dsp_sample_input.o)
                0x00081c00                dsp_sample_input_format_change
                0x00081c5c                dsp_sample_io_configure
 .text          0x00081e4c      0x294 /home/ubuntu/Desktop/RockboxRCC/bu480/lib/librbcodec.a(dsp_sample_output.o)
                0x00081e4c                sample_output_dithered
                0x00081fb8                dsp_sample_output_format_change
                0x00082018                dsp_sample_output_init
                0x00082040                dsp_sample_output_flush
                0x0008208c                dsp_dither_enable
 .text          0x000820e0      0x438 /home/ubuntu/Desktop/RockboxRCC/bu480/lib/librbcodec.a(eq.o)
                0x00082348                dsp_set_eq_precut
                0x00082368                dsp_set_eq_coefs
                0x000824b0                dsp_eq_enable
 .text          0x00082518      0x2b8 /home/ubuntu/Desktop/RockboxRCC/bu480/lib/librbcodec.a(resample.o)
 .text          0x000827d0      0x1b0 /home/ubuntu/Desktop/RockboxRCC/bu480/lib/librbcodec.a(pga.o)
                0x000828ec                pga_set_gain
                0x00082934                pga_enable_gain
 .text          0x00082980      0xde4 /home/ubuntu/Desktop/RockboxRCC/bu480/lib/librbcodec.a(tdspeed.o)
                0x000835dc                dsp_timestretch_enable
                0x0008361c                dsp_set_timestretch
                0x00083678                dsp_get_timestretch
                0x0008368c                dsp_timestretch_available
                0x000836a8                tdspeed_move
 .text          0x00083764      0x208 /home/ubuntu/Desktop/RockboxRCC/bu480/lib/librbcodec.a(tone_controls.o)
                0x00083894                tone_set_prescale
                0x00083944                tone_set_bass
                0x00083958                tone_set_treble
 .text          0x0008396c      0x598 /home/ubuntu/Desktop/RockboxRCC/bu480/lib/librbcodec.a(dsp_arm.o)
                0x0008396c                channel_mode_proc_mono
                0x000839c8                channel_mode_proc_custom
                0x00083a74                channel_mode_proc_karaoke
                0x00083adc                crossfeed_process
                0x00083b74                crossfeed_meier_process
                0x00083be0                resample_hermite
                0x00083e20                pga_process
                0x00083e90                filter_process
 .text          0x00083f04      0x3f4 /home/ubuntu/Desktop/RockboxRCC/bu480/lib/librbcodec.a(replaygain.o)
                0x000840b0                replaygain_itoa
                0x0008411c                get_replaygain_int
                0x00084140                parse_replaygain
                0x000842a0                parse_replaygain_int
 .text          0x000842f8      0x780 /home/ubuntu/Desktop/RockboxRCC/bu480/lib/librbcodec.a(metadata_common.o)
                0x000842f8                read_string
                0x00084398                read_uint8
                0x000843a8                read_uint16be
                0x000843cc                read_uint32be
                0x0008440c                read_uint64be
                0x00084470                get_uint64_le
                0x000844e4                get_long_le
                0x00084508                get_short_le
                0x00084518                get_long_be
                0x0008453c                get_short_be
                0x0008454c                get_slong
                0x00084570                get_itunes_int32
                0x00084664                skip_id3v2
                0x00084700                parse_tag
 .text          0x00084a78      0x164 /home/ubuntu/Desktop/RockboxRCC/bu480/lib/librbcodec.a(a52.o)
                0x00084a78                get_a52_metadata
 .text          0x00084bdc      0x274 /home/ubuntu/Desktop/RockboxRCC/bu480/lib/librbcodec.a(adx.o)
                0x00084bdc                get_adx_metadata
 .text          0x00084e50      0x298 /home/ubuntu/Desktop/RockboxRCC/bu480/lib/librbcodec.a(aiff.o)
                0x00084e50                get_aiff_metadata
 .text          0x000850e8      0x690 /home/ubuntu/Desktop/RockboxRCC/bu480/lib/librbcodec.a(asap.o)
                0x00085714                get_asap_metadata
 .text          0x00085778     0x1114 /home/ubuntu/Desktop/RockboxRCC/bu480/lib/librbcodec.a(asf.o)
                0x00085a88                get_asf_metadata
 .text          0x0008688c      0x13c /home/ubuntu/Desktop/RockboxRCC/bu480/lib/librbcodec.a(au.o)
                0x0008688c                get_au_metadata
 .text          0x000869c8      0x2a0 /home/ubuntu/Desktop/RockboxRCC/bu480/lib/librbcodec.a(ay.o)
                0x00086a38                get_ay_metadata
 .text          0x00086c68      0x378 /home/ubuntu/Desktop/RockboxRCC/bu480/lib/librbcodec.a(flac.o)
                0x00086c68                get_flac_metadata
 .text          0x00086fe0      0x174 /home/ubuntu/Desktop/RockboxRCC/bu480/lib/librbcodec.a(gbs.o)
                0x00086fe0                get_gbs_metadata
 .text          0x00087154       0xb8 /home/ubuntu/Desktop/RockboxRCC/bu480/lib/librbcodec.a(hes.o)
                0x00087154                get_hes_metadata
 .text          0x0008720c      0x114 /home/ubuntu/Desktop/RockboxRCC/bu480/lib/librbcodec.a(kss.o)
                0x0008720c                get_kss_metadata
 .text          0x00087320      0x270 /home/ubuntu/Desktop/RockboxRCC/bu480/lib/librbcodec.a(mod.o)
                0x00087320                get_mod_metadata
 .text          0x00087590      0x174 /home/ubuntu/Desktop/RockboxRCC/bu480/lib/librbcodec.a(monkeys.o)
                0x00087590                get_monkeys_metadata
 .text          0x00087704     0x1130 /home/ubuntu/Desktop/RockboxRCC/bu480/lib/librbcodec.a(mp4.o)
                0x0008874c                get_mp4_metadata
 .text          0x00088834      0x498 /home/ubuntu/Desktop/RockboxRCC/bu480/lib/librbcodec.a(mpc.o)
                0x000888f4                get_musepack_metadata
 .text          0x00088ccc      0x41c /home/ubuntu/Desktop/RockboxRCC/bu480/lib/librbcodec.a(nsf.o)
                0x00088ccc                get_nsf_metadata
 .text          0x000890e8      0x380 /home/ubuntu/Desktop/RockboxRCC/bu480/lib/librbcodec.a(ogg.o)
                0x000890e8                get_ogg_metadata
 .text          0x00089468      0x220 /home/ubuntu/Desktop/RockboxRCC/bu480/lib/librbcodec.a(oma.o)
                0x00089468                get_oma_metadata
 .text          0x00089688      0x700 /home/ubuntu/Desktop/RockboxRCC/bu480/lib/librbcodec.a(rm.o)
                0x000896cc                get_rm_metadata
 .text          0x00089d88      0x164 /home/ubuntu/Desktop/RockboxRCC/bu480/lib/librbcodec.a(sgc.o)
                0x00089d88                get_sgc_metadata
 .text          0x00089eec      0x150 /home/ubuntu/Desktop/RockboxRCC/bu480/lib/librbcodec.a(sid.o)
                0x00089eec                get_sid_metadata
 .text          0x0008a03c      0x9b4 /home/ubuntu/Desktop/RockboxRCC/bu480/lib/librbcodec.a(smaf.o)
                0x0008a40c                get_smaf_metadata
 .text          0x0008a9f0      0x264 /home/ubuntu/Desktop/RockboxRCC/bu480/lib/librbcodec.a(spc.o)
                0x0008a9f0                get_spc_metadata
 .text          0x0008ac54      0x170 /home/ubuntu/Desktop/RockboxRCC/bu480/lib/librbcodec.a(tta.o)
                0x0008ac54                get_tta_metadata
 .text          0x0008adc4      0x37c /home/ubuntu/Desktop/RockboxRCC/bu480/lib/librbcodec.a(vgm.o)
                0x0008ae84                get_vgm_metadata
 .text          0x0008b140      0x63c /home/ubuntu/Desktop/RockboxRCC/bu480/lib/librbcodec.a(vorbis.o)
                0x0008b378                read_vorbis_tags
 .text          0x0008b77c       0x38 /home/ubuntu/Desktop/RockboxRCC/bu480/lib/librbcodec.a(vox.o)
                0x0008b77c                get_vox_metadata
 .text          0x0008b7b4      0x874 /home/ubuntu/Desktop/RockboxRCC/bu480/lib/librbcodec.a(wave.o)
                0x0008bff0                get_wave_metadata
                0x0008c00c                get_wave64_metadata
 .text          0x0008c028      0x3b4 /home/ubuntu/Desktop/RockboxRCC/bu480/lib/librbcodec.a(wavpack.o)
                0x0008c028                get_wavpack_metadata
 .text          0x0008c3dc      0x310 /home/ubuntu/Desktop/RockboxRCC/bu480/lib/librbcodec.a(emu10k_core.o)
                0x0008c3dc                emu10k_log15
 .text          0x0008c6ec      0x32c /home/ubuntu/Desktop/RockboxRCC/bu480/lib/librbcodec.a(ape.o)
                0x0008c6ec                read_ape_tags
 .text          0x0008ca18      0x120 /home/ubuntu/Desktop/RockboxRCC/bu480/lib/libunwarminder.a(backtrace.o)
                0x0008ca90                CliInvalidateW
                0x0008caa4                backtrace
 .text          0x0008cb38       0x48 /home/ubuntu/Desktop/RockboxRCC/bu480/lib/libunwarminder.a(unwarminder.o)
                0x0008cb38                UnwindStart
 .text          0x0008cb80      0x890 /home/ubuntu/Desktop/RockboxRCC/bu480/lib/libunwarminder.a(unwarm_thumb.o)
                0x0008cb80                UnwStartThumb
 .text          0x0008d410        0x0 /home/ubuntu/Desktop/RockboxRCC/bu480/lib/libunwarminder.a(safe_read.o)
 .text.safe_read8
                0x0008d410       0x34 /home/ubuntu/Desktop/RockboxRCC/bu480/lib/libunwarminder.a(safe_read.o)
                0x0008d410                safe_read8
 .text.safe_read16
                0x0008d444       0x34 /home/ubuntu/Desktop/RockboxRCC/bu480/lib/libunwarminder.a(safe_read.o)
                0x0008d444                safe_read16
 .text.safe_read32
                0x0008d478       0x34 /home/ubuntu/Desktop/RockboxRCC/bu480/lib/libunwarminder.a(safe_read.o)
                0x0008d478                safe_read32
 .text          0x0008d4ac      0x81c /home/ubuntu/Desktop/RockboxRCC/bu480/lib/libunwarminder.a(unwarm_arm.o)
                0x0008d4ac                UnwStartArm
 .text          0x0008dcc8      0x134 /home/ubuntu/Desktop/RockboxRCC/bu480/lib/libunwarminder.a(unwarm.o)
                0x0008dcc8                UnwInvalidateRegisterFile
                0x0008dce8                UnwInitState
                0x0008dd50                UnwReportRetAddr
                0x0008dd68                UnwMemWriteRegister
                0x0008dd88                UnwMemReadRegister
 .text          0x0008ddfc      0x218 /home/ubuntu/Desktop/RockboxRCC/bu480/lib/libunwarminder.a(unwarmmem.o)
                0x0008de84                UnwMemHashRead
                0x0008df10                UnwMemHashWrite
                0x0008dfa4                UnwMemHashGC
 .text          0x0008e014       0xe4 /home/ubuntu/Desktop/RockboxRCC/bu480/lib/libskin_parser.a(skin_buffer.o)
                0x0008e014                skin_buffer_to_offset
                0x0008e03c                skin_buffer_from_offset
                0x0008e064                skin_buffer_init
                0x0008e080                skin_buffer_usage
                0x0008e09c                skin_buffer_freespace
                0x0008e0bc                skin_buffer_alloc
 .text          0x0008e0f8     0x18c4 /home/ubuntu/Desktop/RockboxRCC/bu480/lib/libskin_parser.a(skin_parser.o)
                0x0008e128                skin_alloc_element
                0x0008e178                skin_alloc_params
                0x0008e18c                skin_alloc_string
                0x0008e19c                skin_alloc_children
                0x0008f550                skin_free_tree
                0x0008f554                skin_parse
 .text          0x0008f9bc      0x4d4 /home/ubuntu/Desktop/RockboxRCC/bu480/lib/libskin_parser.a(skin_scan.o)
                0x0008f9bc                skip_comment
                0x0008f9fc                skip_enumlist
                0x0008fa70                skip_tag
                0x0008fb98                skip_arglist
                0x0008fc0c                scan_string
                0x0008fd28                scan_int
                0x0008fe24                check_viewport
 .text          0x0008fe90       0xa8 /home/ubuntu/Desktop/RockboxRCC/bu480/lib/libskin_parser.a(tag_table.o)
                0x0008fe90                find_tag
                0x0008fef0                find_escape_character
 .text          0x0008ff38        0x0 /home/ubuntu/Desktop/RockboxRCC/bu480/lib/libfixedpoint.a(fixedpoint.o)
 .text.fp_sincos
                0x0008ff38       0x9c /home/ubuntu/Desktop/RockboxRCC/bu480/lib/libfixedpoint.a(fixedpoint.o)
                0x0008ff38                fp_sincos
 .text.fp_sqrt  0x0008ffd4       0x88 /home/ubuntu/Desktop/RockboxRCC/bu480/lib/libfixedpoint.a(fixedpoint.o)
                0x0008ffd4                fp_sqrt
 .text.isqrt    0x0009005c       0x38 /home/ubuntu/Desktop/RockboxRCC/bu480/lib/libfixedpoint.a(fixedpoint.o)
                0x0009005c                isqrt
 .text.fp14_sin
                0x00090094       0xbc /home/ubuntu/Desktop/RockboxRCC/bu480/lib/libfixedpoint.a(fixedpoint.o)
                0x00090094                fp14_sin
 .text.fp14_cos
                0x00090150       0xbc /home/ubuntu/Desktop/RockboxRCC/bu480/lib/libfixedpoint.a(fixedpoint.o)
                0x00090150                fp14_cos
 .text.fp16_log
                0x0009020c       0xd4 /home/ubuntu/Desktop/RockboxRCC/bu480/lib/libfixedpoint.a(fixedpoint.o)
                0x0009020c                fp16_log
 .text.fp16_exp
                0x000902e0       0xe0 /home/ubuntu/Desktop/RockboxRCC/bu480/lib/libfixedpoint.a(fixedpoint.o)
                0x000902e0                fp16_exp
 .text.fp_exp10
                0x000903c0      0x2a4 /home/ubuntu/Desktop/RockboxRCC/bu480/lib/libfixedpoint.a(fixedpoint.o)
                0x000903c0                fp_exp10
 .text.fp_log10
                0x00090664       0xfc /home/ubuntu/Desktop/RockboxRCC/bu480/lib/libfixedpoint.a(fixedpoint.o)
                0x00090664                fp_log10
 .text.fp_decibels
                0x00090760       0x48 /home/ubuntu/Desktop/RockboxRCC/bu480/lib/libfixedpoint.a(fixedpoint.o)
                0x00090760                fp_decibels
 .text.fp_factor
                0x000907a8       0x44 /home/ubuntu/Desktop/RockboxRCC/bu480/lib/libfixedpoint.a(fixedpoint.o)
                0x000907a8                fp_factor
 .text          0x000907ec      0xc98 /home/ubuntu/Desktop/RockboxRCC/bu480/cpu-features.o
                0x00091344                android_getCpuFamily
                0x00091370                android_getCpuFeatures
                0x0009139c                android_getCpuCount
                0x000913c8                android_setCpu
                0x0009142c                android_getCpuIdArm
                0x00091458                android_setCpuArm
 .text          0x00091484        0xc /home/ubuntu/Desktop/RockboxRCC/bu480/firmware/target/hosted/android/jni/power-manager.o
                0x00091484                Java_org_rockbox_jni_RockboxNativeInterface_powerOff
 .text          0x00091490       0xc8 /home/ubuntu/android-ndk-r9c/toolchains/arm-linux-androideabi-4.8/prebuilt/linux-x86/bin/../lib/gcc/arm-linux-androideabi/4.8/libgcc.a(_udivsi3.o)
                0x00091490                __udivsi3
                0x00091490                __aeabi_uidiv
                0x00091538                __aeabi_uidivmod
 .text          0x00091558       0xfc /home/ubuntu/android-ndk-r9c/toolchains/arm-linux-androideabi-4.8/prebuilt/linux-x86/bin/../lib/gcc/arm-linux-androideabi/4.8/libgcc.a(_divsi3.o)
                0x00091558                __divsi3
                0x00091558                __aeabi_idiv
                0x00091634                __aeabi_idivmod
 .text          0x00091654       0x44 /home/ubuntu/android-ndk-r9c/toolchains/arm-linux-androideabi-4.8/prebuilt/linux-x86/bin/../lib/gcc/arm-linux-androideabi/4.8/libgcc.a(_aeabi_ldivmod.o)
                0x00091654                __aeabi_ldivmod
 .text          0x00091698       0x3c /home/ubuntu/android-ndk-r9c/toolchains/arm-linux-androideabi-4.8/prebuilt/linux-x86/bin/../lib/gcc/arm-linux-androideabi/4.8/libgcc.a(_aeabi_uldivmod.o)
                0x00091698                __aeabi_uldivmod
 .text          0x000916d4       0x10 /home/ubuntu/android-ndk-r9c/toolchains/arm-linux-androideabi-4.8/prebuilt/linux-x86/bin/../lib/gcc/arm-linux-androideabi/4.8/libgcc.a(_dvmd_lnx.o)
                0x000916d4                __aeabi_idiv0
                0x000916d4                __aeabi_ldiv0
 .text          0x000916e4       0x44 /home/ubuntu/android-ndk-r9c/toolchains/arm-linux-androideabi-4.8/prebuilt/linux-x86/bin/../lib/gcc/arm-linux-androideabi/4.8/libgcc.a(_popcountsi2.o)
                0x000916e4                __popcountsi2
 .text          0x00091728       0x78 /home/ubuntu/android-ndk-r9c/toolchains/arm-linux-androideabi-4.8/prebuilt/linux-x86/bin/../lib/gcc/arm-linux-androideabi/4.8/libgcc.a(bpabi.o)
                0x00091728                __gnu_ldivmod_helper
                0x00091764                __gnu_uldivmod_helper
 .text          0x000917a0      0xf20 /home/ubuntu/android-ndk-r9c/toolchains/arm-linux-androideabi-4.8/prebuilt/linux-x86/bin/../lib/gcc/arm-linux-androideabi/4.8/libgcc.a(unwind-arm.o)
                0x00092350                __aeabi_unwind_cpp_pr0
                0x00092358                __aeabi_unwind_cpp_pr1
                0x00092360                __aeabi_unwind_cpp_pr2
                0x00091be4                _Unwind_GetCFA
                0x00091bec                __gnu_Unwind_RaiseException
                0x00091c90                __gnu_Unwind_ForcedUnwind
                0x00091cac                __gnu_Unwind_Resume
                0x00091d20                __gnu_Unwind_Resume_or_Rethrow
                0x00091d40                _Unwind_Complete
                0x00091d44                _Unwind_DeleteException
                0x00091d64                _Unwind_VRS_Get
                0x00091de8                _Unwind_VRS_Set
                0x00091e70                __gnu_Unwind_Backtrace
                0x00092368                _Unwind_VRS_Pop
 .text          0x000926c0      0x1a8 /home/ubuntu/android-ndk-r9c/toolchains/arm-linux-androideabi-4.8/prebuilt/linux-x86/bin/../lib/gcc/arm-linux-androideabi/4.8/libgcc.a(libunwind.o)
                0x000926c0                __restore_core_regs
                0x000926c0                restore_core_regs
                0x000926d4                __gnu_Unwind_Restore_VFP
                0x000926dc                __gnu_Unwind_Save_VFP
                0x000926e4                __gnu_Unwind_Restore_VFP_D
                0x000926ec                __gnu_Unwind_Save_VFP_D
                0x000926f4                __gnu_Unwind_Restore_VFP_D_16_to_31
                0x000926fc                __gnu_Unwind_Save_VFP_D_16_to_31
                0x00092704                __gnu_Unwind_Restore_WMMXD
                0x00092748                __gnu_Unwind_Save_WMMXD
                0x0009278c                __gnu_Unwind_Restore_WMMXC
                0x000927a0                __gnu_Unwind_Save_WMMXC
                0x000927b4                ___Unwind_RaiseException
                0x000927b4                _Unwind_RaiseException
                0x000927d8                ___Unwind_Resume
                0x000927d8                _Unwind_Resume
                0x000927fc                ___Unwind_Resume_or_Rethrow
                0x000927fc                _Unwind_Resume_or_Rethrow
                0x00092820                ___Unwind_ForcedUnwind
                0x00092820                _Unwind_ForcedUnwind
                0x00092844                ___Unwind_Backtrace
                0x00092844                _Unwind_Backtrace
 .text          0x00092868      0x484 /home/ubuntu/android-ndk-r9c/toolchains/arm-linux-androideabi-4.8/prebuilt/linux-x86/bin/../lib/gcc/arm-linux-androideabi/4.8/libgcc.a(pr-support.o)
                0x000928f4                __gnu_unwind_execute
                0x00092c70                __gnu_unwind_frame
                0x00092cb0                _Unwind_GetRegionStart
                0x00092cc0                _Unwind_GetLanguageSpecificData
                0x00092cdc                _Unwind_GetDataRelBase
                0x00092ce4                _Unwind_GetTextRelBase
 .text          0x00092cec        0x0 /home/ubuntu/android-ndk-r9c/toolchains/arm-linux-androideabi-4.8/prebuilt/linux-x86/bin/../lib/gcc/arm-linux-androideabi/4.8/libgcc.a(_popcount_tab.o)
 .text          0x00092cec      0x498 /home/ubuntu/android-ndk-r9c/toolchains/arm-linux-androideabi-4.8/prebuilt/linux-x86/bin/../lib/gcc/arm-linux-androideabi/4.8/libgcc.a(_divdi3.o)
                0x00092cec                __divdi3
 .text          0xffffffffffffffff      0x404 /home/ubuntu/android-ndk-r9c/toolchains/arm-linux-androideabi-4.8/prebuilt/linux-x86/bin/../lib/gcc/arm-linux-androideabi/4.8/libgcc.a(_udivdi3.o)
                0x00093184                __udivdi3
 .text          0x00093588        0x0 /home/ubuntu/android-ndk-r9c/platforms/android-19/arch-arm/usr/lib/crtend_so.o

.icode          0x00093588      0x200
 .icode         0x00093588       0x7c /home/ubuntu/Desktop/RockboxRCC/bu480/firmware/libfirmware.a(memset16.o)
                0x00093588                memset16
 .icode         0xffffffffffffffff      0x184 /home/ubuntu/Desktop/RockboxRCC/bu480/lib/librbcodec.a(dsp_arm.o)
                0x00093604                sample_output_mono
                0x000936a4                sample_output_stereo

.rodata         0x00093788    0x34208
 .rodata        0x00093788       0x14 /home/ubuntu/Desktop/RockboxRCC/bu480/apps/bookmark.o
 ** merge strings
                0x000937a0     0x5ca5
 .rodata        0x00099448       0x18 /home/ubuntu/Desktop/RockboxRCC/bu480/apps/debug_menu.o
 .rodata        0x00099460       0x18 /home/ubuntu/Desktop/RockboxRCC/bu480/apps/menu.o
 .rodata        0x00099478       0x90 /home/ubuntu/Desktop/RockboxRCC/bu480/apps/menus/display_menu.o
 .rodata        0x00099508       0xc0 /home/ubuntu/Desktop/RockboxRCC/bu480/apps/menus/theme_menu.o
 .rodata        0x000995c8       0x30 /home/ubuntu/Desktop/RockboxRCC/bu480/apps/menus/plugin_menu.o
 .rodata        0x000995f8       0x64 /home/ubuntu/Desktop/RockboxRCC/bu480/apps/menus/eq_menu.o
 .rodata        0x00099660       0x10 /home/ubuntu/Desktop/RockboxRCC/bu480/apps/buffering.o
 .rodata        0x00099670        0x8 /home/ubuntu/Desktop/RockboxRCC/bu480/apps/voice_thread.o
 .rodata        0x00099678       0x90 /home/ubuntu/Desktop/RockboxRCC/bu480/apps/menus/main_menu.o
 .rodata        0x00099708       0x3c /home/ubuntu/Desktop/RockboxRCC/bu480/apps/menus/playback_menu.o
 .rodata        0x00099744       0x54 /home/ubuntu/Desktop/RockboxRCC/bu480/apps/menus/playlist_menu.o
 .rodata        0x00099798       0xe4 /home/ubuntu/Desktop/RockboxRCC/bu480/apps/menus/settings_menu.o
 .rodata        0x0009987c       0x30 /home/ubuntu/Desktop/RockboxRCC/bu480/apps/menus/sound_menu.o
 .rodata        0x000998ac        0xc /home/ubuntu/Desktop/RockboxRCC/bu480/apps/menus/time_menu.o
 .rodata        0x000998b8       0x10 /home/ubuntu/Desktop/RockboxRCC/bu480/apps/misc.o
                0x000998b8                byte_units
 .rodata        0x000998c8       0x84 /home/ubuntu/Desktop/RockboxRCC/bu480/apps/onplay.o
 .rodata        0x00099950       0x28 /home/ubuntu/Desktop/RockboxRCC/bu480/apps/playlist.o
 .rodata        0x00099978        0xc /home/ubuntu/Desktop/RockboxRCC/bu480/apps/playlist_viewer.o
 .rodata        0x00099984       0x60 /home/ubuntu/Desktop/RockboxRCC/bu480/apps/root_menu.o
 .rodata        0x000999e4       0x68 /home/ubuntu/Desktop/RockboxRCC/bu480/apps/screens.o
 .rodata        0x00099a50      0x220 /home/ubuntu/Desktop/RockboxRCC/bu480/apps/settings_list.o
                0x00099a50                nb_settings
 .rodata        0x00099c70       0x68 /home/ubuntu/Desktop/RockboxRCC/bu480/apps/talk.o
 .rodata        0x00099cd8       0x40 /home/ubuntu/Desktop/RockboxRCC/bu480/apps/gui/pitchscreen.o
 .rodata        0x00099d18        0x4 /home/ubuntu/Desktop/RockboxRCC/bu480/apps/hosted/android/notification.o
 .rodata        0x00099d1c       0x50 /home/ubuntu/Desktop/RockboxRCC/bu480/apps/recorder/bmp.o
                0x00099d5c                dither_table
 .rodata        0x00099d6c       0xa0 /home/ubuntu/Desktop/RockboxRCC/bu480/apps/recorder/icons.o
                0x00099d6c                bitmap_icon_disk
                0x00099d78                bitmap_icons_7x8
                0x00099df8                bitmap_icons_5x8
 .rodata        0x00099e0c       0xa0 /home/ubuntu/Desktop/RockboxRCC/bu480/apps/recorder/peakmeter.o
 .rodata        0x00099eac      0x730 /home/ubuntu/Desktop/RockboxRCC/bu480/apps/recorder/jpeg_load.o
 .rodata        0x0009a5e0       0x18 /home/ubuntu/Desktop/RockboxRCC/bu480/apps/recorder/albumart.o
 .rodata        0x0009a5f8       0x10 /home/ubuntu/Desktop/RockboxRCC/bu480/apps/gui/color_picker.o
 .rodata        0x0009a608        0x8 /home/ubuntu/Desktop/RockboxRCC/bu480/apps/audio_thread.o
 .rodata        0x0009a610        0xc /home/ubuntu/Desktop/RockboxRCC/bu480/apps/pcmbuf.o
 .rodata        0x0009a620        0x8 /home/ubuntu/Desktop/RockboxRCC/bu480/apps/codec_thread.o
 .rodata        0x0009a628       0x50 /home/ubuntu/Desktop/RockboxRCC/bu480/apps/playback.o
 .rodata        0x0009a678       0x28 /home/ubuntu/Desktop/RockboxRCC/bu480/apps/tagcache.o
 .rodata        0x0009a6a0      0x69c /home/ubuntu/Desktop/RockboxRCC/bu480/apps/keymaps/keymap-touchscreen.o
 .rodata        0x0009ad3c      0x204 /home/ubuntu/Desktop/RockboxRCC/bu480/apps/keymaps/keymap-android.o
 .rodata        0x0009af40       0xc0 /home/ubuntu/Desktop/RockboxRCC/bu480/apps/bitmaps/mono/default_icons.o
                0x0009af40                default_icons
 .rodata        0x0009b000    0x22ec0 /home/ubuntu/Desktop/RockboxRCC/bu480/apps/bitmaps/native/rockboxlogo.480x149x16.o
                0x0009b000                rockboxlogo
 .rodata        0x000bdec0     0x4200 /home/ubuntu/Desktop/RockboxRCC/bu480/apps/bitmaps/native/usblogo.176x48x16.o
                0x000bdec0                usblogo
 .rodata        0x000c20c0     0x1d98 /home/ubuntu/Desktop/RockboxRCC/bu480/lang/lang_core.o
                0x000c20c0                core_language_builtin
 .rodata        0x000c3e58       0x20 /home/ubuntu/Desktop/RockboxRCC/bu480/firmware/libfirmware.a(powermgmt.o)
 .rodata        0x000c3e78       0x28 /home/ubuntu/Desktop/RockboxRCC/bu480/firmware/libfirmware.a(version.o)
                0x000c3e78                rbversion
 .rodata        0x000c3ea0       0x40 /home/ubuntu/Desktop/RockboxRCC/bu480/firmware/libfirmware.a(crc32.o)
 .rodata        0x000c3ee0       0x18 /home/ubuntu/Desktop/RockboxRCC/bu480/firmware/libfirmware.a(format.o)
 .rodata        0x000c3ef8        0x8 /home/ubuntu/Desktop/RockboxRCC/bu480/firmware/libfirmware.a(rbpaths.o)
 .rodata        0x000c3f00        0xc /home/ubuntu/Desktop/RockboxRCC/bu480/firmware/libfirmware.a(timefuncs.o)
 .rodata        0x000c3f0c       0x18 /home/ubuntu/Desktop/RockboxRCC/bu480/firmware/libfirmware.a(unicode.o)
 .rodata        0x000c3f28       0x20 /home/ubuntu/Desktop/RockboxRCC/bu480/firmware/libfirmware.a(scroll_engine.o)
 .rodata        0x000c3f48       0x44 /home/ubuntu/Desktop/RockboxRCC/bu480/firmware/libfirmware.a(screendump.o)
 .rodata        0x000c3f8c      0x238 /home/ubuntu/Desktop/RockboxRCC/bu480/firmware/libfirmware.a(diacritic.o)
 .rodata        0x000c41c4       0x40 /home/ubuntu/Desktop/RockboxRCC/bu480/firmware/libfirmware.a(touchscreen.o)
                0x000c41e8                default_calibration_parameters
 .rodata        0x000c4204       0x34 /home/ubuntu/Desktop/RockboxRCC/bu480/firmware/libfirmware.a(pcm_sampr.o)
                0x000c4204                hw_freq_sampr
                0x000c4208                audio_master_sampr_list
 .rodata        0x000c4238       0x10 /home/ubuntu/Desktop/RockboxRCC/bu480/firmware/libfirmware.a(kernel-unix.o)
 .rodata        0x000c4248        0x8 /home/ubuntu/Desktop/RockboxRCC/bu480/firmware/libfirmware.a(thread.o)
 .rodata        0x000c4250      0x67c /home/ubuntu/Desktop/RockboxRCC/bu480/firmware/libfirmware.a(sysfont.o)
 .rodata        0x000c48cc      0x478 /home/ubuntu/Desktop/RockboxRCC/bu480/firmware/libfirmware.a(arabjoin.o)
                0x000c48cc                jointable
                0x000c4d1c                lamaleph
                0x000c4d3c                zwj
 .rodata        0x000c4d44       0xa0 /home/ubuntu/Desktop/RockboxRCC/bu480/lib/rbcodec/codecs/libspeex-voice.a(sb_celp.o)
 .rodata        0x000c4de4       0x6c /home/ubuntu/Desktop/RockboxRCC/bu480/lib/rbcodec/codecs/libspeex-voice.a(filters.o)
                0x000c4e24                shift_filt
 .rodata        0x000c4e50      0x140 /home/ubuntu/Desktop/RockboxRCC/bu480/lib/rbcodec/codecs/libspeex-voice.a(hexc_10_32_table.o)
                0x000c4e50                hexc_10_32_table
 .rodata        0x000c4f90      0x400 /home/ubuntu/Desktop/RockboxRCC/bu480/lib/rbcodec/codecs/libspeex-voice.a(hexc_table.o)
                0x000c4f90                hexc_table
 .rodata        0x000c5390      0x400 /home/ubuntu/Desktop/RockboxRCC/bu480/lib/rbcodec/codecs/libspeex-voice.a(high_lsp_tables.o)
                0x000c5390                high_lsp_cdbk2
                0x000c5590                high_lsp_cdbk
 .rodata        0x000c5790      0x780 /home/ubuntu/Desktop/RockboxRCC/bu480/lib/rbcodec/codecs/libspeex-voice.a(lsp_tables_nb.o)
                0x000c5790                cdbk_nb_high2
                0x000c58d0                cdbk_nb_high1
                0x000c5a10                cdbk_nb_low2
                0x000c5b50                cdbk_nb_low1
                0x000c5c90                cdbk_nb
 .rodata        0x000c5f10       0xcc /home/ubuntu/Desktop/RockboxRCC/bu480/lib/rbcodec/codecs/libspeex-voice.a(nb_celp.o)
                0x000c5f5c                ol_gain_table
                0x000c5f3c                exc_gain_quant_scal3
                0x000c5f34                exc_gain_quant_scal1
                0x000c5f20                attenuation
                0x000c5f38                exc_gain_quant_scal1_bound
                0x000c5f4c                exc_gain_quant_scal3_bound
 .rodata        0x000c5fdc       0xa0 /home/ubuntu/Desktop/RockboxRCC/bu480/lib/rbcodec/codecs/libspeex-voice.a(exc_10_16_table.o)
                0x000c5fdc                exc_10_16_table
 .rodata        0x000c607c      0x140 /home/ubuntu/Desktop/RockboxRCC/bu480/lib/rbcodec/codecs/libspeex-voice.a(exc_10_32_table.o)
                0x000c607c                exc_10_32_table
 .rodata        0x000c61bc      0x280 /home/ubuntu/Desktop/RockboxRCC/bu480/lib/rbcodec/codecs/libspeex-voice.a(exc_20_32_table.o)
                0x000c61bc                exc_20_32_table
 .rodata        0x000c643c      0x500 /home/ubuntu/Desktop/RockboxRCC/bu480/lib/rbcodec/codecs/libspeex-voice.a(exc_5_256_table.o)
                0x000c643c                exc_5_256_table
 .rodata        0x000c693c      0x140 /home/ubuntu/Desktop/RockboxRCC/bu480/lib/rbcodec/codecs/libspeex-voice.a(exc_5_64_table.o)
                0x000c693c                exc_5_64_table
 .rodata        0x000c6a7c      0x400 /home/ubuntu/Desktop/RockboxRCC/bu480/lib/rbcodec/codecs/libspeex-voice.a(exc_8_128_table.o)
                0x000c6a7c                exc_8_128_table
 .rodata        0x000c6e7c      0x200 /home/ubuntu/Desktop/RockboxRCC/bu480/lib/rbcodec/codecs/libspeex-voice.a(gain_table.o)
                0x000c6e7c                gain_cdbk_nb
 .rodata        0x000c707c       0x80 /home/ubuntu/Desktop/RockboxRCC/bu480/lib/rbcodec/codecs/libspeex-voice.a(gain_table_lbr.o)
                0x000c707c                gain_cdbk_lbr
 .rodata        0x000c7100      0x218 /home/ubuntu/Desktop/RockboxRCC/bu480/lib/librbcodec.a(metadata.o)
 .rodata        0x000c7318        0x8 /home/ubuntu/Desktop/RockboxRCC/bu480/lib/librbcodec.a(id3tags.o)
 .rodata        0x000c7320       0xb8 /home/ubuntu/Desktop/RockboxRCC/bu480/lib/librbcodec.a(mp3data.o)
 .rodata        0x000c73d8      0x114 /home/ubuntu/Desktop/RockboxRCC/bu480/lib/librbcodec.a(compressor.o)
 .rodata        0x000c74ec        0x4 /home/ubuntu/Desktop/RockboxRCC/bu480/lib/librbcodec.a(dsp_core.o)
 .rodata        0x000c74f0       0x10 /home/ubuntu/Desktop/RockboxRCC/bu480/lib/librbcodec.a(tdspeed.o)
 .rodata        0x000c7500       0x18 /home/ubuntu/Desktop/RockboxRCC/bu480/lib/librbcodec.a(metadata_common.o)
 .rodata        0x000c7518       0x74 /home/ubuntu/Desktop/RockboxRCC/bu480/lib/librbcodec.a(a52.o)
 .rodata        0x000c758c       0x80 /home/ubuntu/Desktop/RockboxRCC/bu480/lib/librbcodec.a(asf.o)
 .rodata        0x000c760c        0xc /home/ubuntu/Desktop/RockboxRCC/bu480/lib/librbcodec.a(au.o)
 .rodata        0x000c7618       0x30 /home/ubuntu/Desktop/RockboxRCC/bu480/lib/librbcodec.a(mp4.o)
 .rodata        0x000c7648       0x10 /home/ubuntu/Desktop/RockboxRCC/bu480/lib/librbcodec.a(mpc.o)
 .rodata        0x000c7658        0xc /home/ubuntu/Desktop/RockboxRCC/bu480/lib/librbcodec.a(oma.o)
 .rodata        0x000c7664       0x38 /home/ubuntu/Desktop/RockboxRCC/bu480/lib/librbcodec.a(smaf.o)
 .rodata        0x000c769c        0x4 /home/ubuntu/Desktop/RockboxRCC/bu480/lib/librbcodec.a(vgm.o)
                0x000c769c                gd3_header_size
 .rodata        0x000c76a0       0x68 /home/ubuntu/Desktop/RockboxRCC/bu480/lib/librbcodec.a(wave.o)
 .rodata        0x000c7708       0x3c /home/ubuntu/Desktop/RockboxRCC/bu480/lib/librbcodec.a(wavpack.o)
 .rodata        0x000c7748       0x10 /home/ubuntu/Desktop/RockboxRCC/bu480/lib/libskin_parser.a(tag_table.o)
 .rodata.atan_table
                0x000c7758       0x80 /home/ubuntu/Desktop/RockboxRCC/bu480/lib/libfixedpoint.a(fixedpoint.o)
 .rodata.sin_table
                0x000c77d8       0xb8 /home/ubuntu/Desktop/RockboxRCC/bu480/lib/libfixedpoint.a(fixedpoint.o)
 .rodata        0x000c7890      0x100 /home/ubuntu/android-ndk-r9c/toolchains/arm-linux-androideabi-4.8/prebuilt/linux-x86/bin/../lib/gcc/arm-linux-androideabi/4.8/libgcc.a(_popcount_tab.o)
                0x000c7890                __popcount_tab

.ARM.extab      0x000c7990       0x48
 .ARM.extab     0x000c7990        0xc /home/ubuntu/android-ndk-r9c/toolchains/arm-linux-androideabi-4.8/prebuilt/linux-x86/bin/../lib/gcc/arm-linux-androideabi/4.8/libgcc.a(_dvmd_lnx.o)
 .ARM.extab     0x000c799c        0x0 /home/ubuntu/android-ndk-r9c/toolchains/arm-linux-androideabi-4.8/prebuilt/linux-x86/bin/../lib/gcc/arm-linux-androideabi/4.8/libgcc.a(_popcountsi2.o)
 .ARM.extab     0x000c799c        0x0 /home/ubuntu/android-ndk-r9c/toolchains/arm-linux-androideabi-4.8/prebuilt/linux-x86/bin/../lib/gcc/arm-linux-androideabi/4.8/libgcc.a(bpabi.o)
 .ARM.extab     0x000c799c        0xc /home/ubuntu/android-ndk-r9c/toolchains/arm-linux-androideabi-4.8/prebuilt/linux-x86/bin/../lib/gcc/arm-linux-androideabi/4.8/libgcc.a(unwind-arm.o)
 .ARM.extab     0x000c79a8       0x30 /home/ubuntu/android-ndk-r9c/toolchains/arm-linux-androideabi-4.8/prebuilt/linux-x86/bin/../lib/gcc/arm-linux-androideabi/4.8/libgcc.a(pr-support.o)
 .ARM.extab     0x000c79d8        0x0 /home/ubuntu/android-ndk-r9c/toolchains/arm-linux-androideabi-4.8/prebuilt/linux-x86/bin/../lib/gcc/arm-linux-androideabi/4.8/libgcc.a(_divdi3.o)
 .ARM.extab     0x000c79d8        0x0 /home/ubuntu/android-ndk-r9c/toolchains/arm-linux-androideabi-4.8/prebuilt/linux-x86/bin/../lib/gcc/arm-linux-androideabi/4.8/libgcc.a(_udivdi3.o)

.ARM.exidx      0x000c79d8      0x138
 .ARM.exidx     0x000c79d8        0x8 /home/ubuntu/android-ndk-r9c/toolchains/arm-linux-androideabi-4.8/prebuilt/linux-x86/bin/../lib/gcc/arm-linux-androideabi/4.8/libgcc.a(_dvmd_lnx.o)
 .ARM.exidx     0x000c79e0        0x8 /home/ubuntu/android-ndk-r9c/toolchains/arm-linux-androideabi-4.8/prebuilt/linux-x86/bin/../lib/gcc/arm-linux-androideabi/4.8/libgcc.a(_popcountsi2.o)
 .ARM.exidx     0xffffffffffffffff       0x10 /home/ubuntu/android-ndk-r9c/toolchains/arm-linux-androideabi-4.8/prebuilt/linux-x86/bin/../lib/gcc/arm-linux-androideabi/4.8/libgcc.a(bpabi.o)
 .ARM.exidx     0xffffffffffffffff       0xd8 /home/ubuntu/android-ndk-r9c/toolchains/arm-linux-androideabi-4.8/prebuilt/linux-x86/bin/../lib/gcc/arm-linux-androideabi/4.8/libgcc.a(unwind-arm.o)
 ** ARM cantunwind
                0x000c7aa0        0x8
 .ARM.exidx     0x000c7aa8       0x48 /home/ubuntu/android-ndk-r9c/toolchains/arm-linux-androideabi-4.8/prebuilt/linux-x86/bin/../lib/gcc/arm-linux-androideabi/4.8/libgcc.a(pr-support.o)
 ** ARM cantunwind
                0x000c7af0        0x8
 .ARM.exidx     0x000c7af8        0x8 /home/ubuntu/android-ndk-r9c/toolchains/arm-linux-androideabi-4.8/prebuilt/linux-x86/bin/../lib/gcc/arm-linux-androideabi/4.8/libgcc.a(_divdi3.o)
 .ARM.exidx     0x000c7b00        0x8 /home/ubuntu/android-ndk-r9c/toolchains/arm-linux-androideabi-4.8/prebuilt/linux-x86/bin/../lib/gcc/arm-linux-androideabi/4.8/libgcc.a(_udivdi3.o)
 ** ARM cantunwind
                0x000c7b08        0x8

.data.rel.ro.local
                0x000c904c     0x26d4
 .data.rel.ro.local
                0x000c904c        0xc /home/ubuntu/Desktop/RockboxRCC/bu480/apps/bookmark.o
 .data.rel.ro.local
                0x000c9058       0x58 /home/ubuntu/Desktop/RockboxRCC/bu480/apps/debug_menu.o
 .data.rel.ro.local
                0x000c90b0      0x4c0 /home/ubuntu/Desktop/RockboxRCC/bu480/apps/filetypes.o
 .data.rel.ro.local
                0x000c9570       0x18 /home/ubuntu/Desktop/RockboxRCC/bu480/apps/menu.o
 .data.rel.ro.local
                0x000c9588       0x90 /home/ubuntu/Desktop/RockboxRCC/bu480/apps/menus/display_menu.o
                0x000c9588                display_menu
                0x000c9594                touchscreen_menu
                0x000c95a0                touchscreen_menu_reset_calibration
                0x000c95ac                touchscreen_menu_calibrate
                0x000c95b8                peak_meter_menu
                0x000c95c4                peak_meter_max_item
                0x000c95d8                peak_meter_min_item
                0x000c95ec                peak_meter_scale_item
                0x000c9600                scroll_settings_menu
                0x000c960c                lcd_settings
 .data.rel.ro.local
                0x000c9618      0x100 /home/ubuntu/Desktop/RockboxRCC/bu480/apps/menus/theme_menu.o
                0x000c9618                theme_menu
                0x000c9624                browse_themes
                0x000c9630                browse_wps
                0x000c963c                browse_sbs
                0x000c9648                browse_fonts
                0x000c9654                bars_menu
                0x000c9660                colors_settings
                0x000c966c                lss_settings
                0x000c9678                reset_colors
                0x000c968c                set_sep_col
                0x000c96a0                set_lst_col
                0x000c96b4                set_lse_col
                0x000c96c8                set_lss_col
                0x000c96dc                set_fg_col
                0x000c96f0                set_bg_col
                0x000c9704                clear_main_bd
 .data.rel.ro.local
                0x000c9718       0x60 /home/ubuntu/Desktop/RockboxRCC/bu480/apps/menus/plugin_menu.o
                0x000c9730                plugin_menu
                0x000c973c                demos_item
                0x000c9750                apps_item
                0x000c9764                games_item
 .data.rel.ro.local
                0x000c9778       0x98 /home/ubuntu/Desktop/RockboxRCC/bu480/apps/menus/eq_menu.o
                0x000c9794                equalizer_menu
                0x000c97a0                eq_reset
                0x000c97b4                eq_browse
                0x000c97c8                eq_save
                0x000c97dc                eq_graphical
                0x000c97e8                advanced_menu
                0x000c97fc                gain_menu
 .data.rel.ro.local
                0x000c9810       0x10 /home/ubuntu/Desktop/RockboxRCC/bu480/apps/rbcodec_helpers.o
 .data.rel.ro.local
                0x000c9820       0xe0 /home/ubuntu/Desktop/RockboxRCC/bu480/apps/menus/main_menu.o
                0x000c9838                main_menu_
                0x000c9844                info_menu
                0x000c9850                debug_menu_item
                0x000c985c                show_runtime_item
                0x000c9868                show_credits_item
                0x000c987c                show_info_item
                0x000c9890                manage_settings
                0x000c989c                reset_settings_item
                0x000c98b0                save_sound_item
                0x000c98c4                save_theme_item
                0x000c98d8                save_settings_item
                0x000c98ec                browse_configs
 .data.rel.ro.local
                0x000c9900       0x3c /home/ubuntu/Desktop/RockboxRCC/bu480/apps/menus/playback_menu.o
                0x000c9900                playback_settings
                0x000c990c                unplug_menu
                0x000c9918                replaygain_settings_menu
                0x000c9924                crossfade_settings_menu
                0x000c9930                ff_rewind_settings_menu
 .data.rel.ro.local
                0x000c993c       0x64 /home/ubuntu/Desktop/RockboxRCC/bu480/apps/menus/playlist_menu.o
                0x000c993c                playlist_options
                0x000c9948                playlist_settings
                0x000c9954                viewer_settings_menu
                0x000c9960                clear_catalog_directory_item
                0x000c9974                save_playlist
                0x000c9980                view_cur_playlist
                0x000c9994                create_playlist_item
 .data.rel.ro.local
                0x000c99a0      0x13c /home/ubuntu/Desktop/RockboxRCC/bu480/apps/menus/settings_menu.o
                0x000c99b0                settings_menu_item
                0x000c99bc                browse_langs
                0x000c99c8                hotkey_menu
                0x000c99d4                voice_settings_menu
                0x000c99e0                autoresume_menu
                0x000c99ec                bookmark_settings_menu
                0x000c99f8                startup_shutdown_menu
                0x000c9a04                sleeptimer_toggle
                0x000c9a2c                system_menu
                0x000c9a38                keyclick_menu
                0x000c9a44                limits_menu
                0x000c9a50                battery_menu
                0x000c9a5c                file_menu
                0x000c9a68                clear_start_directory_item
                0x000c9a7c                tagcache_menu
                0x000c9a88                tc_paths
                0x000c9a9c                tc_import
                0x000c9aa8                tc_export
                0x000c9ab4                tc_update
                0x000c9ac8                tc_init
 .data.rel.ro.local
                0x000c9adc       0x30 /home/ubuntu/Desktop/RockboxRCC/bu480/apps/menus/sound_menu.o
                0x000c9adc                sound_settings
                0x000c9ae8                compressor_menu
                0x000c9af4                space80_menu
                0x000c9b00                crossfeed_menu
 .data.rel.ro.local
                0x000c9b0c       0x2c /home/ubuntu/Desktop/RockboxRCC/bu480/apps/menus/time_menu.o
                0x000c9b0c                time_menu
                0x000c9b24                time_set
 .data.rel.ro.local
                0x000c9b38        0x8 /home/ubuntu/Desktop/RockboxRCC/bu480/apps/misc.o
 .data.rel.ro.local
                0x000c9b40      0x4a4 /home/ubuntu/Desktop/RockboxRCC/bu480/apps/onplay.o
                0x000c9fcc                bookmark_create_menu_item
                0x000c9fb4                bookmark_load_menu_item
                0x000c9de8                view_playlist_item
                0x000c9ee8                i_shuf_pl_item
                0x000c9ec8                i_last_shuf_pl_item
                0x000c9e28                q_last_shuf_pl_item
                0x000c9bf0                properties_item
                0x000c9c90                clipboard_paste_item
                0x000c9c30                create_dir_item
                0x000c9cf0                rename_file_item
                0x000c9cd0                clipboard_cut_item
                0x000c9cb0                clipboard_copy_item
                0x000c9bd0                add_to_faves_item
                0x000c9c50                delete_dir_item
                0x000c9b90                set_startdir_item
                0x000c9dbc                set_catalogdir_item
                0x000c9c70                delete_file_item
                0x000c9c10                list_viewers_item
                0x000c9bb0                set_backdrop_item
                0x000c9d10                pitch_screen_item
                0x000c9d1c                browse_id3_item
                0x000c9d30                view_cue_item
                0x000c9d68                rating_item
                0x000c9d94                cat_add_to_new
                0x000c9da8                cat_add_to_list
                0x000c9e08                replace_pl_item
                0x000c9e48                q_shuf_pl_item
                0x000c9e68                q_last_pl_item
                0x000c9e88                q_first_pl_item
                0x000c9ea8                q_pl_item
                0x000c9f08                i_last_pl_item
                0x000c9f28                i_first_pl_item
                0x000c9f48                i_pl_item
                0x000c9f68                reshuffle_item
                0x000c9f7c                playlist_save_item
                0x000c9f90                search_playlist_item
 .data.rel.ro.local
                0x000c9fe4        0xc /home/ubuntu/Desktop/RockboxRCC/bu480/apps/playlist_viewer.o
 .data.rel.ro.local
                0x000c9ff0       0xa8 /home/ubuntu/Desktop/RockboxRCC/bu480/apps/root_menu.o
                0x000ca010                do_shutdown_item
 .data.rel.ro.local
                0x000ca098        0x8 /home/ubuntu/Desktop/RockboxRCC/bu480/apps/screens.o
 .data.rel.ro.local
                0x000ca0a0       0x20 /home/ubuntu/Desktop/RockboxRCC/bu480/apps/shortcuts.o
 .data.rel.ro.local
                0x000ca0c0        0x8 /home/ubuntu/Desktop/RockboxRCC/bu480/apps/talk.o
                0x000ca0c0                file_thumbnail_ext
                0x000ca0c4                dir_thumbnail_name
 .data.rel.ro.local
                0x000ca0c8      0x1d0 /home/ubuntu/Desktop/RockboxRCC/bu480/apps/tagtree.o
 .data.rel.ro.local
                0x000ca298       0x44 /home/ubuntu/Desktop/RockboxRCC/bu480/apps/gui/option_select.o
 .data.rel.ro.local
                0x000ca2dc       0xf8 /home/ubuntu/Desktop/RockboxRCC/bu480/apps/gui/skin_engine/skin_parser.o
 .data.rel.ro.local
                0x000ca3d4        0xc /home/ubuntu/Desktop/RockboxRCC/bu480/apps/recorder/albumart.o
 .data.rel.ro.local
                0x000ca3e0       0x54 /home/ubuntu/Desktop/RockboxRCC/bu480/apps/tagcache.o
 .data.rel.ro.local
                0x000ca434       0x54 /home/ubuntu/Desktop/RockboxRCC/bu480/firmware/libfirmware.a(unicode.o)
 .data.rel.ro.local
                0x000ca488       0x40 /home/ubuntu/Desktop/RockboxRCC/bu480/firmware/libfirmware.a(lcd-16bit.o)
                0x000ca488                lcd_fastpixelfuncs_backdrop
                0x000ca4a8                lcd_fastpixelfuncs_bgcolor
 .data.rel.ro.local
                0x000ca4c8       0x5c /home/ubuntu/Desktop/RockboxRCC/bu480/firmware/libfirmware.a(sound.o)
 .data.rel.ro.local
                0x000ca524       0x7c /home/ubuntu/Desktop/RockboxRCC/bu480/firmware/libfirmware.a(sysfont.o)
                0x000ca524                sysfont
 .data.rel.ro.local
                0x000ca5a0       0x8c /home/ubuntu/Desktop/RockboxRCC/bu480/lib/rbcodec/codecs/libspeex-voice.a(modes.o)
 .data.rel.ro.local
                0x000ca62c      0x480 /home/ubuntu/Desktop/RockboxRCC/bu480/lib/librbcodec.a(id3tags.o)
 .data.rel.ro.local
                0x000caaac       0x24 /home/ubuntu/Desktop/RockboxRCC/bu480/lib/librbcodec.a(mp3data.o)
 .data.rel.ro.local
                0x000caad0        0x8 /home/ubuntu/Desktop/RockboxRCC/bu480/lib/librbcodec.a(channel_mode.o)
                0x000caad0                CHANNEL_MODE_proc_db_entry
 .data.rel.ro.local
                0x000caad8        0x8 /home/ubuntu/Desktop/RockboxRCC/bu480/lib/librbcodec.a(compressor.o)
                0x000caad8                COMPRESSOR_proc_db_entry
 .data.rel.ro.local
                0x000caae0        0x8 /home/ubuntu/Desktop/RockboxRCC/bu480/lib/librbcodec.a(crossfeed.o)
                0x000caae0                CROSSFEED_proc_db_entry
 .data.rel.ro.local
                0x000caae8        0x8 /home/ubuntu/Desktop/RockboxRCC/bu480/lib/librbcodec.a(emu10k_space80.o)
                0x000caae8                SPACE80_proc_db_entry
 .data.rel.ro.local
                0x000caaf0        0x8 /home/ubuntu/Desktop/RockboxRCC/bu480/lib/librbcodec.a(dsp_misc.o)
                0x000caaf0                MISC_HANDLER_proc_db_entry
 .data.rel.ro.local
                0x000caaf8       0x18 /home/ubuntu/Desktop/RockboxRCC/bu480/lib/librbcodec.a(dsp_sample_input.o)
 .data.rel.ro.local
                0x000cab10        0x8 /home/ubuntu/Desktop/RockboxRCC/bu480/lib/librbcodec.a(eq.o)
                0x000cab10                EQUALIZER_proc_db_entry
 .data.rel.ro.local
                0x000cab18        0x8 /home/ubuntu/Desktop/RockboxRCC/bu480/lib/librbcodec.a(resample.o)
                0x000cab18                RESAMPLE_proc_db_entry
 .data.rel.ro.local
                0x000cab20        0x8 /home/ubuntu/Desktop/RockboxRCC/bu480/lib/librbcodec.a(pga.o)
                0x000cab20                PGA_proc_db_entry
 .data.rel.ro.local
                0x000cab28        0x8 /home/ubuntu/Desktop/RockboxRCC/bu480/lib/librbcodec.a(tdspeed.o)
                0x000cab28                TIMESTRETCH_proc_db_entry
 .data.rel.ro.local
                0x000cab30        0x8 /home/ubuntu/Desktop/RockboxRCC/bu480/lib/librbcodec.a(tone_controls.o)
                0x000cab30                TONE_CONTROLS_proc_db_entry
 .data.rel.ro.local
                0x000cab38       0x58 /home/ubuntu/Desktop/RockboxRCC/bu480/lib/librbcodec.a(wave.o)
 .data.rel.ro.local
                0x000cab90       0x10 /home/ubuntu/Desktop/RockboxRCC/bu480/lib/libunwarminder.a(backtrace.o)
                0x000cab90                cliCallbacks
 .data.rel.ro.local
                0x000caba0      0xb60 /home/ubuntu/Desktop/RockboxRCC/bu480/lib/libskin_parser.a(tag_table.o)
 .data.rel.ro.local
                0x000cb700       0x20 /home/ubuntu/Desktop/RockboxRCC/bu480/cpu-features.o

.fini_array     0x000cb720        0x8
 .fini_array    0x000cb720        0x4 /home/ubuntu/android-ndk-r9c/platforms/android-19/arch-arm/usr/lib/crtbegin_so.o
 .fini_array    0x000cb724        0x4 /home/ubuntu/android-ndk-r9c/platforms/android-19/arch-arm/usr/lib/crtend_so.o

.data.rel.ro    0x000cb728     0x3444
 .data.rel.ro   0x000cb728       0xc4 /home/ubuntu/Desktop/RockboxRCC/bu480/apps/menus/display_menu.o
 .data.rel.ro   0x000cb7ec       0xb0 /home/ubuntu/Desktop/RockboxRCC/bu480/apps/menus/theme_menu.o
 .data.rel.ro   0x000cb89c       0x48 /home/ubuntu/Desktop/RockboxRCC/bu480/apps/menus/eq_menu.o
 .data.rel.ro   0x000cb8e4       0x18 /home/ubuntu/Desktop/RockboxRCC/bu480/apps/menus/main_menu.o
 .data.rel.ro   0x000cb8fc      0x144 /home/ubuntu/Desktop/RockboxRCC/bu480/apps/menus/playback_menu.o
 .data.rel.ro   0x000cba40       0x4c /home/ubuntu/Desktop/RockboxRCC/bu480/apps/menus/playlist_menu.o
 .data.rel.ro   0x000cba8c      0x1c8 /home/ubuntu/Desktop/RockboxRCC/bu480/apps/menus/settings_menu.o
 .data.rel.ro   0x000cbc54      0x12c /home/ubuntu/Desktop/RockboxRCC/bu480/apps/menus/sound_menu.o
 .data.rel.ro   0x000cbd80        0xc /home/ubuntu/Desktop/RockboxRCC/bu480/apps/menus/time_menu.o
 .data.rel.ro   0x000cbd8c       0x28 /home/ubuntu/Desktop/RockboxRCC/bu480/apps/misc.o
                0x000cbdb0                kbyte_units
 .data.rel.ro   0x000cbdb4       0x20 /home/ubuntu/Desktop/RockboxRCC/bu480/apps/onplay.o
 .data.rel.ro   0x000cbdd4      0x550 /home/ubuntu/Desktop/RockboxRCC/bu480/apps/plugin.o
 .data.rel.ro   0x000cc324       0xf8 /home/ubuntu/Desktop/RockboxRCC/bu480/apps/root_menu.o
 .data.rel.ro   0x000cc41c     0x1e4c /home/ubuntu/Desktop/RockboxRCC/bu480/apps/settings_list.o
                0x000cc41c                settings
 .data.rel.ro   0x000ce268       0x20 /home/ubuntu/Desktop/RockboxRCC/bu480/apps/gui/skin_engine/skin_engine.o
 .data.rel.ro   0x000ce288       0x3c /home/ubuntu/Desktop/RockboxRCC/bu480/apps/recorder/jpeg_load.o
 .data.rel.ro   0x000ce2c4       0x18 /home/ubuntu/Desktop/RockboxRCC/bu480/apps/bitmaps/mono/default_icons.o
                0x000ce2c4                bm_default_icons
 .data.rel.ro   0x000ce2dc       0x18 /home/ubuntu/Desktop/RockboxRCC/bu480/apps/bitmaps/native/rockboxlogo.480x149x16.o
                0x000ce2dc                bm_rockboxlogo
 .data.rel.ro   0x000ce2f4       0x18 /home/ubuntu/Desktop/RockboxRCC/bu480/apps/bitmaps/native/usblogo.176x48x16.o
                0x000ce2f4                bm_usblogo
 .data.rel.ro   0x000ce30c       0x30 /home/ubuntu/Desktop/RockboxRCC/bu480/firmware/libfirmware.a(sound.o)
 .data.rel.ro   0x000ce33c      0x1d0 /home/ubuntu/Desktop/RockboxRCC/bu480/lib/rbcodec/codecs/libspeex-voice.a(modes_wb.o)
                0x000ce500                speex_mode_list
                0x000ce33c                speex_wb_mode
 .data.rel.ro   0x000ce50c      0x28c /home/ubuntu/Desktop/RockboxRCC/bu480/lib/rbcodec/codecs/libspeex-voice.a(modes.o)
                0x000ce50c                speex_nb_mode
 .data.rel.ro   0x000ce798      0x380 /home/ubuntu/Desktop/RockboxRCC/bu480/lib/librbcodec.a(metadata.o)
                0x000ce798                audio_formats
 .data.rel.ro   0x000ceb18       0x1c /home/ubuntu/Desktop/RockboxRCC/bu480/lib/librbcodec.a(channel_mode.o)
 .data.rel.ro   0x000ceb34       0x28 /home/ubuntu/Desktop/RockboxRCC/bu480/lib/librbcodec.a(dsp_core.o)
 .data.rel.ro   0x000ceb5c       0x10 /home/ubuntu/Desktop/RockboxRCC/bu480/lib/librbcodec.a(dsp_sample_output.o)

.init_array     0x000ceb6c        0x8
 .init_array    0x000ceb6c        0x4 /home/ubuntu/Desktop/RockboxRCC/bu480/firmware/libfirmware.a(cpuinfo-linux.o)
 .init_array    0x000ceb70        0x4 /home/ubuntu/android-ndk-r9c/platforms/android-19/arch-arm/usr/lib/crtend_so.o

.dynamic        0x000ceb74       0xf8
 ** dynamic     0x000ceb74       0xf8

.got            0x000cec6c      0x394
 ** GOT         0x000cec6c      0x238
 ** GOT PLT     0x000ceea4      0x15c

.data           0x000cf000     0x237c
 .data          0x000cf000        0x4 /home/ubuntu/android-ndk-r9c/platforms/android-19/arch-arm/usr/lib/crtbegin_so.o
                0x000cf000                __dso_handle
 .data          0x000cf004        0x4 /home/ubuntu/Desktop/RockboxRCC/bu480/apps/action.o
 .data          0x000cf008        0x0 /home/ubuntu/Desktop/RockboxRCC/bu480/apps/abrepeat.o
 .data          0x000cf008        0x8 /home/ubuntu/Desktop/RockboxRCC/bu480/apps/bookmark.o
 .data          0x000cf010        0x4 /home/ubuntu/Desktop/RockboxRCC/bu480/apps/debug_menu.o
 .data          0x000cf014        0x8 /home/ubuntu/Desktop/RockboxRCC/bu480/apps/filetypes.o
 .data.rel.local
                0x000cf01c        0xc /home/ubuntu/Desktop/RockboxRCC/bu480/apps/filetypes.o
 .data          0x000cf028        0x0 /home/ubuntu/Desktop/RockboxRCC/bu480/apps/language.o
 .data          0x000cf028        0x0 /home/ubuntu/Desktop/RockboxRCC/bu480/apps/main.o
 .data          0x000cf028       0x1c /home/ubuntu/Desktop/RockboxRCC/bu480/apps/menu.o
 .data          0x000cf044        0x0 /home/ubuntu/Desktop/RockboxRCC/bu480/apps/menus/menu_common.o
 .data          0x000cf044        0x0 /home/ubuntu/Desktop/RockboxRCC/bu480/apps/menus/display_menu.o
 .data.rel.local
                0x000cf044       0x24 /home/ubuntu/Desktop/RockboxRCC/bu480/apps/menus/display_menu.o
 .data.rel      0x000cf068       0x38 /home/ubuntu/Desktop/RockboxRCC/bu480/apps/menus/display_menu.o
 .data          0x000cf0a0        0x0 /home/ubuntu/Desktop/RockboxRCC/bu480/apps/menus/theme_menu.o
 .data.rel.local
                0x000cf0a0       0x34 /home/ubuntu/Desktop/RockboxRCC/bu480/apps/menus/theme_menu.o
 .data.rel      0x000cf0d4       0x48 /home/ubuntu/Desktop/RockboxRCC/bu480/apps/menus/theme_menu.o
 .data          0x000cf11c        0x0 /home/ubuntu/Desktop/RockboxRCC/bu480/apps/menus/plugin_menu.o
 .data.rel      0x000cf11c        0xc /home/ubuntu/Desktop/RockboxRCC/bu480/apps/menus/plugin_menu.o
 .data          0x000cf128        0x0 /home/ubuntu/Desktop/RockboxRCC/bu480/apps/menus/eq_menu.o
 .data.rel.local
                0x000cf128        0x8 /home/ubuntu/Desktop/RockboxRCC/bu480/apps/menus/eq_menu.o
 .data.rel      0x000cf130       0x20 /home/ubuntu/Desktop/RockboxRCC/bu480/apps/menus/eq_menu.o
 .data          0x000cf150        0x0 /home/ubuntu/Desktop/RockboxRCC/bu480/apps/buffering.o
 .data          0x000cf150        0x0 /home/ubuntu/Desktop/RockboxRCC/bu480/apps/voice_thread.o
 .data.rel.local
                0x000cf150        0xc /home/ubuntu/Desktop/RockboxRCC/bu480/apps/voice_thread.o
 .data          0x000cf15c        0x0 /home/ubuntu/Desktop/RockboxRCC/bu480/apps/rbcodec_helpers.o
 .data.rel.local
                0x000cf15c        0xc /home/ubuntu/Desktop/RockboxRCC/bu480/apps/rbcodec_helpers.o
 .data          0x000cf168       0x14 /home/ubuntu/Desktop/RockboxRCC/bu480/apps/menus/main_menu.o
 .data.rel      0x000cf17c       0x38 /home/ubuntu/Desktop/RockboxRCC/bu480/apps/menus/main_menu.o
 .data          0x000cf1b4        0x0 /home/ubuntu/Desktop/RockboxRCC/bu480/apps/menus/playback_menu.o
 .data.rel.local
                0x000cf1b4       0x34 /home/ubuntu/Desktop/RockboxRCC/bu480/apps/menus/playback_menu.o
 .data.rel      0x000cf1e8       0x48 /home/ubuntu/Desktop/RockboxRCC/bu480/apps/menus/playback_menu.o
 .data          0x000cf230        0x0 /home/ubuntu/Desktop/RockboxRCC/bu480/apps/menus/playlist_menu.o
 .data.rel.local
                0x000cf230        0xc /home/ubuntu/Desktop/RockboxRCC/bu480/apps/menus/playlist_menu.o
 .data.rel      0x000cf23c       0x1c /home/ubuntu/Desktop/RockboxRCC/bu480/apps/menus/playlist_menu.o
 .data          0x000cf258       0x10 /home/ubuntu/Desktop/RockboxRCC/bu480/apps/menus/settings_menu.o
 .data.rel.local
                0x000cf268       0x58 /home/ubuntu/Desktop/RockboxRCC/bu480/apps/menus/settings_menu.o
 .data.rel      0x000cf2c0       0x90 /home/ubuntu/Desktop/RockboxRCC/bu480/apps/menus/settings_menu.o
 .data          0x000cf350        0x0 /home/ubuntu/Desktop/RockboxRCC/bu480/apps/menus/sound_menu.o
 .data.rel.local
                0x000cf350       0x40 /home/ubuntu/Desktop/RockboxRCC/bu480/apps/menus/sound_menu.o
 .data.rel      0x000cf390       0x34 /home/ubuntu/Desktop/RockboxRCC/bu480/apps/menus/sound_menu.o
 .data          0x000cf3c4        0x0 /home/ubuntu/Desktop/RockboxRCC/bu480/apps/menus/time_menu.o
 .data.rel      0x000cf3c4        0x8 /home/ubuntu/Desktop/RockboxRCC/bu480/apps/menus/time_menu.o
 .data          0x000cf3cc        0x8 /home/ubuntu/Desktop/RockboxRCC/bu480/apps/misc.o
 .data          0x000cf3d4        0x4 /home/ubuntu/Desktop/RockboxRCC/bu480/apps/onplay.o
 .data.rel      0x000cf3d8      0x18c /home/ubuntu/Desktop/RockboxRCC/bu480/apps/onplay.o
 .data          0x000cf564        0x0 /home/ubuntu/Desktop/RockboxRCC/bu480/apps/playlist.o
 .data.rel.local
                0x000cf564        0xc /home/ubuntu/Desktop/RockboxRCC/bu480/apps/playlist.o
 .data          0x000cf570        0x0 /home/ubuntu/Desktop/RockboxRCC/bu480/apps/playlist_catalog.o
 .data          0x000cf570       0x1c /home/ubuntu/Desktop/RockboxRCC/bu480/apps/playlist_viewer.o
 .data          0x000cf58c        0x0 /home/ubuntu/Desktop/RockboxRCC/bu480/apps/plugin.o
 .data          0x000cf590      0x220 /home/ubuntu/Desktop/RockboxRCC/bu480/apps/root_menu.o
 .data.rel.local
                0x000cf7b0        0xc /home/ubuntu/Desktop/RockboxRCC/bu480/apps/root_menu.o
 .data          0x000cf7bc       0x10 /home/ubuntu/Desktop/RockboxRCC/bu480/apps/screens.o
 .data          0x000cf7cc        0x0 /home/ubuntu/Desktop/RockboxRCC/bu480/apps/settings.o
 .data          0x000cf7cc      0x6dc /home/ubuntu/Desktop/RockboxRCC/bu480/apps/settings_list.o
                0x000cfd40                eq_defaults
 .data.rel.local
                0x000cfea8      0xcc4 /home/ubuntu/Desktop/RockboxRCC/bu480/apps/settings_list.o
 .data.rel      0x000d0b6c      0x4a0 /home/ubuntu/Desktop/RockboxRCC/bu480/apps/settings_list.o
 .data          0x000d100c        0x4 /home/ubuntu/Desktop/RockboxRCC/bu480/apps/shortcuts.o
 .data          0x000d1010        0x0 /home/ubuntu/Desktop/RockboxRCC/bu480/apps/status.o
 .data          0x000d1010        0x0 /home/ubuntu/Desktop/RockboxRCC/bu480/apps/cuesheet.o
 .data          0x000d1010        0x0 /home/ubuntu/Desktop/RockboxRCC/bu480/apps/talk.o
 .data.rel.local
                0x000d1010       0x24 /home/ubuntu/Desktop/RockboxRCC/bu480/apps/talk.o
 .data          0x000d1034        0x4 /home/ubuntu/Desktop/RockboxRCC/bu480/apps/tree.o
 .data.rel.local
                0x000d1038        0xc /home/ubuntu/Desktop/RockboxRCC/bu480/apps/tree.o
 .data          0x000d1044        0x0 /home/ubuntu/Desktop/RockboxRCC/bu480/apps/tagtree.o
 .data.rel.local
                0x000d1044        0xc /home/ubuntu/Desktop/RockboxRCC/bu480/apps/tagtree.o
 .data          0x000d1050        0x0 /home/ubuntu/Desktop/RockboxRCC/bu480/apps/filetree.o
 .data          0x000d1050        0x0 /home/ubuntu/Desktop/RockboxRCC/bu480/apps/scrobbler.o
 .data          0x000d1050        0x0 /home/ubuntu/Desktop/RockboxRCC/bu480/apps/screen_access.o
 .data.rel      0x000d1050      0x104 /home/ubuntu/Desktop/RockboxRCC/bu480/apps/screen_access.o
                0x000d1050                screens
 .data          0x000d1154        0x0 /home/ubuntu/Desktop/RockboxRCC/bu480/apps/gui/icon.o
 .data.rel.local
                0x000d1154        0xc /home/ubuntu/Desktop/RockboxRCC/bu480/apps/gui/icon.o
 .data          0x000d1160        0x8 /home/ubuntu/Desktop/RockboxRCC/bu480/apps/gui/list.o
 .data          0x000d1168        0x0 /home/ubuntu/Desktop/RockboxRCC/bu480/apps/gui/line.o
 .data          0x000d1168        0x1 /home/ubuntu/Desktop/RockboxRCC/bu480/apps/gui/bitmap/list.o
 .data          0x000d1169        0x0 /home/ubuntu/Desktop/RockboxRCC/bu480/apps/gui/bitmap/list-skinned.o
 .data          0x000d1169        0x0 /home/ubuntu/Desktop/RockboxRCC/bu480/apps/gui/option_select.o
 .data          0x000d1169        0x0 /home/ubuntu/Desktop/RockboxRCC/bu480/apps/gui/pitchscreen.o
 .data          0x000d1169        0x0 /home/ubuntu/Desktop/RockboxRCC/bu480/apps/gui/quickscreen.o
 .data          0x000d1169        0x0 /home/ubuntu/Desktop/RockboxRCC/bu480/apps/gui/folder_select.o
 .data.rel.local
                0x000d116c       0x14 /home/ubuntu/Desktop/RockboxRCC/bu480/apps/gui/folder_select.o
 .data          0x000d1180        0x0 /home/ubuntu/Desktop/RockboxRCC/bu480/apps/gui/wps.o
 .data          0x000d1180        0x4 /home/ubuntu/Desktop/RockboxRCC/bu480/apps/gui/scrollbar.o
 .data          0x000d1184        0x0 /home/ubuntu/Desktop/RockboxRCC/bu480/apps/gui/splash.o
 .data          0x000d1184        0x0 /home/ubuntu/Desktop/RockboxRCC/bu480/apps/gui/statusbar.o
 .data          0x000d1184        0xc /home/ubuntu/Desktop/RockboxRCC/bu480/apps/gui/statusbar-skinned.o
 .data          0x000d1190        0x0 /home/ubuntu/Desktop/RockboxRCC/bu480/apps/hosted/android/yesno.o
 .data          0x000d1190        0x0 /home/ubuntu/Desktop/RockboxRCC/bu480/apps/hosted/android/notification.o
 .data          0x000d1190        0x0 /home/ubuntu/Desktop/RockboxRCC/bu480/apps/gui/viewport.o
 .data          0x000d1190        0x1 /home/ubuntu/Desktop/RockboxRCC/bu480/apps/gui/skin_engine/skin_backdrops.o
 .data.rel.local
                0x000d1194        0xc /home/ubuntu/Desktop/RockboxRCC/bu480/apps/gui/skin_engine/skin_backdrops.o
 .data          0x000d11a0        0x0 /home/ubuntu/Desktop/RockboxRCC/bu480/apps/gui/skin_engine/skin_display.o
 .data          0x000d11a0        0x1 /home/ubuntu/Desktop/RockboxRCC/bu480/apps/gui/skin_engine/skin_engine.o
 .data          0x000d11a4        0x4 /home/ubuntu/Desktop/RockboxRCC/bu480/apps/gui/skin_engine/skin_parser.o
 .data.rel.local
                0x000d11a8        0xc /home/ubuntu/Desktop/RockboxRCC/bu480/apps/gui/skin_engine/skin_parser.o
 .data          0x000d11b4        0x0 /home/ubuntu/Desktop/RockboxRCC/bu480/apps/gui/skin_engine/skin_render.o
 .data          0x000d11b4        0x0 /home/ubuntu/Desktop/RockboxRCC/bu480/apps/gui/skin_engine/skin_tokens.o
 .data          0x000d11b4        0x0 /home/ubuntu/Desktop/RockboxRCC/bu480/apps/gui/skin_engine/skin_touchsupport.o
 .data          0x000d11b4        0x0 /home/ubuntu/Desktop/RockboxRCC/bu480/apps/gui/backdrop.o
 .data          0x000d11b4        0x0 /home/ubuntu/Desktop/RockboxRCC/bu480/apps/recorder/bmp.o
 .data          0x000d11b4        0x0 /home/ubuntu/Desktop/RockboxRCC/bu480/apps/recorder/icons.o
 .data          0x000d11b4        0x0 /home/ubuntu/Desktop/RockboxRCC/bu480/apps/hosted/android/keyboard.o
 .data          0x000d11b4       0x18 /home/ubuntu/Desktop/RockboxRCC/bu480/apps/recorder/peakmeter.o
 .data          0x000d11cc        0x0 /home/ubuntu/Desktop/RockboxRCC/bu480/apps/recorder/resize.o
 .data          0x000d11cc        0x0 /home/ubuntu/Desktop/RockboxRCC/bu480/apps/recorder/jpeg_load.o
 .data          0x000d11cc        0x0 /home/ubuntu/Desktop/RockboxRCC/bu480/apps/recorder/jpeg_idct_arm.o
 .data          0x000d11cc        0x0 /home/ubuntu/Desktop/RockboxRCC/bu480/apps/recorder/albumart.o
 .data          0x000d11cc        0x0 /home/ubuntu/Desktop/RockboxRCC/bu480/apps/gui/color_picker.o
 .data          0x000d11cc        0x0 /home/ubuntu/Desktop/RockboxRCC/bu480/apps/audio_thread.o
 .data          0x000d11cc        0xc /home/ubuntu/Desktop/RockboxRCC/bu480/apps/pcmbuf.o
 .data          0x000d11d8        0x0 /home/ubuntu/Desktop/RockboxRCC/bu480/apps/codec_thread.o
 .data          0x000d11d8        0x8 /home/ubuntu/Desktop/RockboxRCC/bu480/apps/playback.o
 .data.rel.local
                0x000d11e0        0xc /home/ubuntu/Desktop/RockboxRCC/bu480/apps/playback.o
 .data          0x000d11ec        0x0 /home/ubuntu/Desktop/RockboxRCC/bu480/apps/codecs.o
 .data.rel      0x000d11ec       0x80 /home/ubuntu/Desktop/RockboxRCC/bu480/apps/codecs.o
                0x000d11ec                ci
 .data          0x000d126c        0x0 /home/ubuntu/Desktop/RockboxRCC/bu480/apps/beep.o
 .data          0x000d126c        0x8 /home/ubuntu/Desktop/RockboxRCC/bu480/apps/tagcache.o
 .data          0x000d1274        0x0 /home/ubuntu/Desktop/RockboxRCC/bu480/apps/keymaps/keymap-touchscreen.o
 .data          0x000d1274        0x0 /home/ubuntu/Desktop/RockboxRCC/bu480/apps/keymaps/keymap-android.o
 .data          0x000d1274        0x0 /home/ubuntu/Desktop/RockboxRCC/bu480/apps/bitmaps/mono/default_icons.o
 .data          0x000d1274        0x0 /home/ubuntu/Desktop/RockboxRCC/bu480/apps/bitmaps/native/rockboxlogo.480x149x16.o
 .data          0x000d1274        0x0 /home/ubuntu/Desktop/RockboxRCC/bu480/apps/bitmaps/native/usblogo.176x48x16.o
 .data          0x000d1274        0x0 /home/ubuntu/Desktop/RockboxRCC/bu480/lang/lang_core.o
 .data          0x000d1274        0x0 /home/ubuntu/Desktop/RockboxRCC/bu480/firmware/libfirmware.a(ata_idle_notify.o)
 .data          0x000d1274        0x0 /home/ubuntu/Desktop/RockboxRCC/bu480/firmware/libfirmware.a(events.o)
 .data          0x000d1274        0x0 /home/ubuntu/Desktop/RockboxRCC/bu480/firmware/libfirmware.a(backlight.o)
 .data          0x000d1274        0x0 /home/ubuntu/Desktop/RockboxRCC/bu480/firmware/libfirmware.a(buflib.o)
 .data          0x000d1274        0x0 /home/ubuntu/Desktop/RockboxRCC/bu480/firmware/libfirmware.a(core_alloc.o)
 .data.rel      0x000d1274        0x4 /home/ubuntu/Desktop/RockboxRCC/bu480/firmware/libfirmware.a(core_alloc.o)
                0x000d1274                audiobufend
 .data          0x000d1278        0x0 /home/ubuntu/Desktop/RockboxRCC/bu480/firmware/libfirmware.a(general.o)
 .data          0x000d1278        0x8 /home/ubuntu/Desktop/RockboxRCC/bu480/firmware/libfirmware.a(powermgmt.o)
                0x000d1278                battery_percent
                0x000d127c                last_sent_battery_level
 .data          0x000d1280        0x8 /home/ubuntu/Desktop/RockboxRCC/bu480/firmware/libfirmware.a(cpuinfo-linux.o)
 .data          0x000d1288        0x0 /home/ubuntu/Desktop/RockboxRCC/bu480/firmware/libfirmware.a(usb.o)
 .data          0x000d1288        0x0 /home/ubuntu/Desktop/RockboxRCC/bu480/firmware/libfirmware.a(kernel.o)
 .data          0x000d1288        0x0 /home/ubuntu/Desktop/RockboxRCC/bu480/firmware/libfirmware.a(panic.o)
 .data          0x000d1288        0x0 /home/ubuntu/Desktop/RockboxRCC/bu480/firmware/libfirmware.a(version.o)
 .data          0x000d1288        0x0 /home/ubuntu/Desktop/RockboxRCC/bu480/firmware/libfirmware.a(crc32.o)
 .data          0x000d1288        0x0 /home/ubuntu/Desktop/RockboxRCC/bu480/firmware/libfirmware.a(filefuncs.o)
 .data          0x000d1288        0x0 /home/ubuntu/Desktop/RockboxRCC/bu480/firmware/libfirmware.a(format.o)
 .data          0x000d1288        0x0 /home/ubuntu/Desktop/RockboxRCC/bu480/firmware/libfirmware.a(rbpaths.o)
 .data          0x000d1288        0x0 /home/ubuntu/Desktop/RockboxRCC/bu480/firmware/libfirmware.a(strcasecmp.o)
 .data          0x000d1288        0x0 /home/ubuntu/Desktop/RockboxRCC/bu480/firmware/libfirmware.a(strcasestr.o)
 .data          0x000d1288        0x0 /home/ubuntu/Desktop/RockboxRCC/bu480/firmware/libfirmware.a(strnatcmp.o)
 .data          0x000d1288        0x0 /home/ubuntu/Desktop/RockboxRCC/bu480/firmware/libfirmware.a(strlcat.o)
 .data          0x000d1288        0x0 /home/ubuntu/Desktop/RockboxRCC/bu480/firmware/libfirmware.a(strlcpy.o)
 .data          0x000d1288        0x0 /home/ubuntu/Desktop/RockboxRCC/bu480/firmware/libfirmware.a(structec.o)
 .data          0x000d1288        0x0 /home/ubuntu/Desktop/RockboxRCC/bu480/firmware/libfirmware.a(timefuncs.o)
 .data          0x000d1288        0x0 /home/ubuntu/Desktop/RockboxRCC/bu480/firmware/libfirmware.a(unicode.o)
 .data          0x000d1288        0x0 /home/ubuntu/Desktop/RockboxRCC/bu480/firmware/libfirmware.a(scroll_engine.o)
 .data.rel.local
                0x000d1288       0x1c /home/ubuntu/Desktop/RockboxRCC/bu480/firmware/libfirmware.a(scroll_engine.o)
                0x000d1288                lcd_scroll_info
 .data          0x000d12a4        0x0 /home/ubuntu/Desktop/RockboxRCC/bu480/firmware/libfirmware.a(bidi.o)
 .data          0x000d12a4        0x0 /home/ubuntu/Desktop/RockboxRCC/bu480/firmware/libfirmware.a(font.o)
 .data.rel.local
                0x000d12a4        0xc /home/ubuntu/Desktop/RockboxRCC/bu480/firmware/libfirmware.a(font.o)
 .data          0x000d12b0        0x0 /home/ubuntu/Desktop/RockboxRCC/bu480/firmware/libfirmware.a(lru.o)
 .data          0x000d12b0        0x0 /home/ubuntu/Desktop/RockboxRCC/bu480/firmware/libfirmware.a(screendump.o)
 .data          0x000d12b0       0x24 /home/ubuntu/Desktop/RockboxRCC/bu480/firmware/libfirmware.a(lcd-16bit.o)
 .data.rel.local
                0x000d12d4        0x4 /home/ubuntu/Desktop/RockboxRCC/bu480/firmware/libfirmware.a(lcd-16bit.o)
 .data.rel      0x000d12d8        0x8 /home/ubuntu/Desktop/RockboxRCC/bu480/firmware/libfirmware.a(lcd-16bit.o)
                0x000d12dc                lcd_framebuffer
                0x000d12d8                lcd_fastpixelfuncs
 .data          0x000d12e0        0x0 /home/ubuntu/Desktop/RockboxRCC/bu480/firmware/libfirmware.a(diacritic.o)
 .data          0x000d12e0        0x0 /home/ubuntu/Desktop/RockboxRCC/bu480/firmware/libfirmware.a(led.o)
 .data          0x000d12e0        0x4 /home/ubuntu/Desktop/RockboxRCC/bu480/firmware/libfirmware.a(button.o)
 .data          0x000d12e4       0x20 /home/ubuntu/Desktop/RockboxRCC/bu480/firmware/libfirmware.a(touchscreen.o)
                0x000d12e8                calibration_parameters
 .data          0x000d1304        0x0 /home/ubuntu/Desktop/RockboxRCC/bu480/firmware/libfirmware.a(sound.o)
 .data          0x000d1304        0x0 /home/ubuntu/Desktop/RockboxRCC/bu480/firmware/libfirmware.a(pcm_sampr.o)
 .data          0x000d1304        0x4 /home/ubuntu/Desktop/RockboxRCC/bu480/firmware/libfirmware.a(pcm.o)
                0x000d1304                pcm_sampr
 .data          0x000d1308        0x4 /home/ubuntu/Desktop/RockboxRCC/bu480/firmware/libfirmware.a(pcm_mixer.o)
 .data          0x000d130c        0x0 /home/ubuntu/Desktop/RockboxRCC/bu480/firmware/libfirmware.a(audiohw-swcodec.o)
 .data          0x000d130c        0x4 /home/ubuntu/Desktop/RockboxRCC/bu480/firmware/libfirmware.a(kernel-unix.o)
 .data          0x000d1310        0x0 /home/ubuntu/Desktop/RockboxRCC/bu480/firmware/libfirmware.a(filesystem-unix.o)
 .data          0x000d1310        0x0 /home/ubuntu/Desktop/RockboxRCC/bu480/firmware/libfirmware.a(lc-unix.o)
 .data          0x000d1310        0x0 /home/ubuntu/Desktop/RockboxRCC/bu480/firmware/libfirmware.a(lcd-android.o)
 .data          0x000d1310        0x0 /home/ubuntu/Desktop/RockboxRCC/bu480/firmware/libfirmware.a(button-android.o)
 .data          0x000d1310        0x0 /home/ubuntu/Desktop/RockboxRCC/bu480/firmware/libfirmware.a(pcm-android.o)
 .data          0x000d1310        0x0 /home/ubuntu/Desktop/RockboxRCC/bu480/firmware/libfirmware.a(powermgmt-android.o)
 .data          0x000d1310        0x0 /home/ubuntu/Desktop/RockboxRCC/bu480/firmware/libfirmware.a(system-android.o)
 .data          0x000d1310        0x0 /home/ubuntu/Desktop/RockboxRCC/bu480/firmware/libfirmware.a(telephony-android.o)
 .data          0x000d1310        0x0 /home/ubuntu/Desktop/RockboxRCC/bu480/firmware/libfirmware.a(button-application.o)
 .data          0x000d1310        0x0 /home/ubuntu/Desktop/RockboxRCC/bu480/firmware/libfirmware.a(android.o)
 .data          0x000d1310        0x0 /home/ubuntu/Desktop/RockboxRCC/bu480/firmware/libfirmware.a(thread.o)
 .data          0x000d1310        0x0 /home/ubuntu/Desktop/RockboxRCC/bu480/firmware/libfirmware.a(sysfont.o)
 .data          0x000d1310        0x0 /home/ubuntu/Desktop/RockboxRCC/bu480/firmware/libfirmware.a(ffs.o)
 .data          0x000d1310        0x0 /home/ubuntu/Desktop/RockboxRCC/bu480/firmware/libfirmware.a(memset16.o)
 .data          0x000d1310        0x0 /home/ubuntu/Desktop/RockboxRCC/bu480/firmware/libfirmware.a(rtc.o)
 .data          0x000d1310        0x0 /home/ubuntu/Desktop/RockboxRCC/bu480/firmware/libfirmware.a(arabjoin.o)
 .data          0x000d1310        0x0 /home/ubuntu/Desktop/RockboxRCC/bu480/firmware/libfirmware.a(font_cache.o)
 .data          0x000d1310        0x0 /home/ubuntu/Desktop/RockboxRCC/bu480/lib/rbcodec/codecs/libspeex-voice.a(bits.o)
 .data          0x000d1310        0x0 /home/ubuntu/Desktop/RockboxRCC/bu480/lib/rbcodec/codecs/libspeex-voice.a(modes_wb.o)
 .data          0x000d1310        0x0 /home/ubuntu/Desktop/RockboxRCC/bu480/lib/rbcodec/codecs/libspeex-voice.a(quant_lsp.o)
 .data          0x000d1310        0x0 /home/ubuntu/Desktop/RockboxRCC/bu480/lib/rbcodec/codecs/libspeex-voice.a(sb_celp.o)
 .data          0x000d1310        0x0 /home/ubuntu/Desktop/RockboxRCC/bu480/lib/rbcodec/codecs/libspeex-voice.a(speex.o)
 .data          0x000d1310        0x0 /home/ubuntu/Desktop/RockboxRCC/bu480/lib/rbcodec/codecs/libspeex-voice.a(filters_arm4.o)
 .data          0x000d1310        0x0 /home/ubuntu/Desktop/RockboxRCC/bu480/lib/rbcodec/codecs/libspeex-voice.a(cb_search.o)
 .data          0x000d1310        0x0 /home/ubuntu/Desktop/RockboxRCC/bu480/lib/rbcodec/codecs/libspeex-voice.a(filters.o)
 .data          0x000d1310        0x0 /home/ubuntu/Desktop/RockboxRCC/bu480/lib/rbcodec/codecs/libspeex-voice.a(hexc_10_32_table.o)
 .data          0x000d1310        0x0 /home/ubuntu/Desktop/RockboxRCC/bu480/lib/rbcodec/codecs/libspeex-voice.a(hexc_table.o)
 .data          0x000d1310        0x0 /home/ubuntu/Desktop/RockboxRCC/bu480/lib/rbcodec/codecs/libspeex-voice.a(high_lsp_tables.o)
 .data          0x000d1310        0x0 /home/ubuntu/Desktop/RockboxRCC/bu480/lib/rbcodec/codecs/libspeex-voice.a(lsp.o)
 .data          0x000d1310        0x0 /home/ubuntu/Desktop/RockboxRCC/bu480/lib/rbcodec/codecs/libspeex-voice.a(lsp_tables_nb.o)
 .data          0x000d1310        0x0 /home/ubuntu/Desktop/RockboxRCC/bu480/lib/rbcodec/codecs/libspeex-voice.a(ltp.o)
 .data          0x000d1310        0x0 /home/ubuntu/Desktop/RockboxRCC/bu480/lib/rbcodec/codecs/libspeex-voice.a(modes.o)
 .data          0x000d1310        0x0 /home/ubuntu/Desktop/RockboxRCC/bu480/lib/rbcodec/codecs/libspeex-voice.a(nb_celp.o)
 .data          0x000d1310        0x0 /home/ubuntu/Desktop/RockboxRCC/bu480/lib/rbcodec/codecs/libspeex-voice.a(speex_callbacks.o)
 .data          0x000d1310        0x0 /home/ubuntu/Desktop/RockboxRCC/bu480/lib/rbcodec/codecs/libspeex-voice.a(exc_10_16_table.o)
 .data          0x000d1310        0x0 /home/ubuntu/Desktop/RockboxRCC/bu480/lib/rbcodec/codecs/libspeex-voice.a(exc_10_32_table.o)
 .data          0x000d1310        0x0 /home/ubuntu/Desktop/RockboxRCC/bu480/lib/rbcodec/codecs/libspeex-voice.a(exc_20_32_table.o)
 .data          0x000d1310        0x0 /home/ubuntu/Desktop/RockboxRCC/bu480/lib/rbcodec/codecs/libspeex-voice.a(exc_5_256_table.o)
 .data          0x000d1310        0x0 /home/ubuntu/Desktop/RockboxRCC/bu480/lib/rbcodec/codecs/libspeex-voice.a(exc_5_64_table.o)
 .data          0x000d1310        0x0 /home/ubuntu/Desktop/RockboxRCC/bu480/lib/rbcodec/codecs/libspeex-voice.a(exc_8_128_table.o)
 .data          0x000d1310        0x0 /home/ubuntu/Desktop/RockboxRCC/bu480/lib/rbcodec/codecs/libspeex-voice.a(gain_table.o)
 .data          0x000d1310        0x0 /home/ubuntu/Desktop/RockboxRCC/bu480/lib/rbcodec/codecs/libspeex-voice.a(gain_table_lbr.o)
 .data          0x000d1310        0x0 /home/ubuntu/Desktop/RockboxRCC/bu480/lib/librbcodec.a(metadata.o)
 .data          0x000d1310        0x0 /home/ubuntu/Desktop/RockboxRCC/bu480/lib/librbcodec.a(id3tags.o)
 .data          0x000d1310        0x0 /home/ubuntu/Desktop/RockboxRCC/bu480/lib/librbcodec.a(mp3.o)
 .data          0x000d1310        0x0 /home/ubuntu/Desktop/RockboxRCC/bu480/lib/librbcodec.a(mp3data.o)
 .data          0x000d1310        0x0 /home/ubuntu/Desktop/RockboxRCC/bu480/lib/librbcodec.a(channel_mode.o)
 .data          0x000d1310        0x0 /home/ubuntu/Desktop/RockboxRCC/bu480/lib/librbcodec.a(compressor.o)
 .data          0x000d1310        0x0 /home/ubuntu/Desktop/RockboxRCC/bu480/lib/librbcodec.a(crossfeed.o)
 .data          0x000d1310        0x0 /home/ubuntu/Desktop/RockboxRCC/bu480/lib/librbcodec.a(emu10k_space80.o)
 .data.rel.local
                0x000d1310       0x54 /home/ubuntu/Desktop/RockboxRCC/bu480/lib/librbcodec.a(emu10k_space80.o)
 .data          0x000d1364        0x0 /home/ubuntu/Desktop/RockboxRCC/bu480/lib/librbcodec.a(dsp_core.o)
 .data          0x000d1364        0x0 /home/ubuntu/Desktop/RockboxRCC/bu480/lib/librbcodec.a(dsp_filter.o)
 .data          0x000d1364        0x4 /home/ubuntu/Desktop/RockboxRCC/bu480/lib/librbcodec.a(dsp_misc.o)
 .data          0x000d1368        0x0 /home/ubuntu/Desktop/RockboxRCC/bu480/lib/librbcodec.a(dsp_sample_input.o)
 .data          0x000d1368        0x0 /home/ubuntu/Desktop/RockboxRCC/bu480/lib/librbcodec.a(dsp_sample_output.o)
 .data          0x000d1368        0x0 /home/ubuntu/Desktop/RockboxRCC/bu480/lib/librbcodec.a(eq.o)
 .data          0x000d1368        0x0 /home/ubuntu/Desktop/RockboxRCC/bu480/lib/librbcodec.a(resample.o)
 .data          0x000d1368       0x10 /home/ubuntu/Desktop/RockboxRCC/bu480/lib/librbcodec.a(pga.o)
 .data          0x000d1378        0x0 /home/ubuntu/Desktop/RockboxRCC/bu480/lib/librbcodec.a(tdspeed.o)
 .data          0x000d1378        0x0 /home/ubuntu/Desktop/RockboxRCC/bu480/lib/librbcodec.a(tone_controls.o)
 .data          0x000d1378        0x0 /home/ubuntu/Desktop/RockboxRCC/bu480/lib/librbcodec.a(dsp_arm.o)
 .data          0x000d1378        0x0 /home/ubuntu/Desktop/RockboxRCC/bu480/lib/librbcodec.a(replaygain.o)
 .data          0x000d1378        0x0 /home/ubuntu/Desktop/RockboxRCC/bu480/lib/librbcodec.a(metadata_common.o)
 .data          0x000d1378        0x0 /home/ubuntu/Desktop/RockboxRCC/bu480/lib/librbcodec.a(a52.o)
 .data          0x000d1378        0x0 /home/ubuntu/Desktop/RockboxRCC/bu480/lib/librbcodec.a(adx.o)
 .data          0x000d1378        0x0 /home/ubuntu/Desktop/RockboxRCC/bu480/lib/librbcodec.a(aiff.o)
 .data          0x000d1378        0x0 /home/ubuntu/Desktop/RockboxRCC/bu480/lib/librbcodec.a(asap.o)
 .data          0x000d1378        0x0 /home/ubuntu/Desktop/RockboxRCC/bu480/lib/librbcodec.a(asf.o)
 .data          0x000d1378        0x0 /home/ubuntu/Desktop/RockboxRCC/bu480/lib/librbcodec.a(au.o)
 .data          0x000d1378        0x0 /home/ubuntu/Desktop/RockboxRCC/bu480/lib/librbcodec.a(ay.o)
 .data          0x000d1378        0x0 /home/ubuntu/Desktop/RockboxRCC/bu480/lib/librbcodec.a(flac.o)
 .data          0x000d1378        0x0 /home/ubuntu/Desktop/RockboxRCC/bu480/lib/librbcodec.a(gbs.o)
 .data          0x000d1378        0x0 /home/ubuntu/Desktop/RockboxRCC/bu480/lib/librbcodec.a(hes.o)
 .data          0x000d1378        0x0 /home/ubuntu/Desktop/RockboxRCC/bu480/lib/librbcodec.a(kss.o)
 .data          0x000d1378        0x0 /home/ubuntu/Desktop/RockboxRCC/bu480/lib/librbcodec.a(mod.o)
 .data          0x000d1378        0x0 /home/ubuntu/Desktop/RockboxRCC/bu480/lib/librbcodec.a(monkeys.o)
 .data          0x000d1378        0x0 /home/ubuntu/Desktop/RockboxRCC/bu480/lib/librbcodec.a(mp4.o)
 .data          0x000d1378        0x0 /home/ubuntu/Desktop/RockboxRCC/bu480/lib/librbcodec.a(mpc.o)
 .data          0x000d1378        0x0 /home/ubuntu/Desktop/RockboxRCC/bu480/lib/librbcodec.a(nsf.o)
 .data          0x000d1378        0x0 /home/ubuntu/Desktop/RockboxRCC/bu480/lib/librbcodec.a(ogg.o)
 .data          0x000d1378        0x0 /home/ubuntu/Desktop/RockboxRCC/bu480/lib/librbcodec.a(oma.o)
 .data          0x000d1378        0x0 /home/ubuntu/Desktop/RockboxRCC/bu480/lib/librbcodec.a(rm.o)
 .data          0x000d1378        0x0 /home/ubuntu/Desktop/RockboxRCC/bu480/lib/librbcodec.a(sgc.o)
 .data          0x000d1378        0x0 /home/ubuntu/Desktop/RockboxRCC/bu480/lib/librbcodec.a(sid.o)
 .data          0x000d1378        0x0 /home/ubuntu/Desktop/RockboxRCC/bu480/lib/librbcodec.a(smaf.o)
 .data          0x000d1378        0x0 /home/ubuntu/Desktop/RockboxRCC/bu480/lib/librbcodec.a(spc.o)
 .data          0x000d1378        0x0 /home/ubuntu/Desktop/RockboxRCC/bu480/lib/librbcodec.a(tta.o)
 .data          0x000d1378        0x0 /home/ubuntu/Desktop/RockboxRCC/bu480/lib/librbcodec.a(vgm.o)
 .data          0x000d1378        0x0 /home/ubuntu/Desktop/RockboxRCC/bu480/lib/librbcodec.a(vorbis.o)
 .data          0x000d1378        0x0 /home/ubuntu/Desktop/RockboxRCC/bu480/lib/librbcodec.a(vox.o)
 .data          0x000d1378        0x0 /home/ubuntu/Desktop/RockboxRCC/bu480/lib/librbcodec.a(wave.o)
 .data          0x000d1378        0x0 /home/ubuntu/Desktop/RockboxRCC/bu480/lib/librbcodec.a(wavpack.o)
 .data          0x000d1378        0x0 /home/ubuntu/Desktop/RockboxRCC/bu480/lib/librbcodec.a(emu10k_core.o)
 .data          0x000d1378        0x0 /home/ubuntu/Desktop/RockboxRCC/bu480/lib/librbcodec.a(ape.o)
 .data          0x000d1378        0x0 /home/ubuntu/Desktop/RockboxRCC/bu480/lib/libunwarminder.a(backtrace.o)
 .data          0x000d1378        0x0 /home/ubuntu/Desktop/RockboxRCC/bu480/lib/libunwarminder.a(unwarminder.o)
 .data          0x000d1378        0x0 /home/ubuntu/Desktop/RockboxRCC/bu480/lib/libunwarminder.a(unwarm_thumb.o)
 .data          0x000d1378        0x4 /home/ubuntu/Desktop/RockboxRCC/bu480/lib/libunwarminder.a(safe_read.o)
 .data          0x000d137c        0x0 /home/ubuntu/Desktop/RockboxRCC/bu480/lib/libunwarminder.a(unwarm_arm.o)
 .data          0x000d137c        0x0 /home/ubuntu/Desktop/RockboxRCC/bu480/lib/libunwarminder.a(unwarm.o)
 .data          0x000d137c        0x0 /home/ubuntu/Desktop/RockboxRCC/bu480/lib/libunwarminder.a(unwarmmem.o)
 .data          0x000d137c        0x0 /home/ubuntu/Desktop/RockboxRCC/bu480/lib/libskin_parser.a(skin_buffer.o)
 .data          0x000d137c        0x0 /home/ubuntu/Desktop/RockboxRCC/bu480/lib/libskin_parser.a(skin_parser.o)
 .data          0x000d137c        0x0 /home/ubuntu/Desktop/RockboxRCC/bu480/lib/libskin_parser.a(skin_scan.o)
 .data          0x000d137c        0x0 /home/ubuntu/Desktop/RockboxRCC/bu480/lib/libskin_parser.a(tag_table.o)
 .data          0x000d137c        0x0 /home/ubuntu/Desktop/RockboxRCC/bu480/lib/libfixedpoint.a(fixedpoint.o)
 .data          0x000d137c        0x0 /home/ubuntu/Desktop/RockboxRCC/bu480/cpu-features.o
 .data          0x000d137c        0x0 /home/ubuntu/Desktop/RockboxRCC/bu480/firmware/target/hosted/android/jni/power-manager.o
 .data          0x000d137c        0x0 /home/ubuntu/android-ndk-r9c/toolchains/arm-linux-androideabi-4.8/prebuilt/linux-x86/bin/../lib/gcc/arm-linux-androideabi/4.8/libgcc.a(_udivsi3.o)
 .data          0x000d137c        0x0 /home/ubuntu/android-ndk-r9c/toolchains/arm-linux-androideabi-4.8/prebuilt/linux-x86/bin/../lib/gcc/arm-linux-androideabi/4.8/libgcc.a(_divsi3.o)
 .data          0x000d137c        0x0 /home/ubuntu/android-ndk-r9c/toolchains/arm-linux-androideabi-4.8/prebuilt/linux-x86/bin/../lib/gcc/arm-linux-androideabi/4.8/libgcc.a(_aeabi_ldivmod.o)
 .data          0x000d137c        0x0 /home/ubuntu/android-ndk-r9c/toolchains/arm-linux-androideabi-4.8/prebuilt/linux-x86/bin/../lib/gcc/arm-linux-androideabi/4.8/libgcc.a(_aeabi_uldivmod.o)
 .data          0x000d137c        0x0 /home/ubuntu/android-ndk-r9c/toolchains/arm-linux-androideabi-4.8/prebuilt/linux-x86/bin/../lib/gcc/arm-linux-androideabi/4.8/libgcc.a(_dvmd_lnx.o)
 .data          0x000d137c        0x0 /home/ubuntu/android-ndk-r9c/toolchains/arm-linux-androideabi-4.8/prebuilt/linux-x86/bin/../lib/gcc/arm-linux-androideabi/4.8/libgcc.a(_popcountsi2.o)
 .data          0x000d137c        0x0 /home/ubuntu/android-ndk-r9c/toolchains/arm-linux-androideabi-4.8/prebuilt/linux-x86/bin/../lib/gcc/arm-linux-androideabi/4.8/libgcc.a(bpabi.o)
 .data          0x000d137c        0x0 /home/ubuntu/android-ndk-r9c/toolchains/arm-linux-androideabi-4.8/prebuilt/linux-x86/bin/../lib/gcc/arm-linux-androideabi/4.8/libgcc.a(unwind-arm.o)
 .data          0x000d137c        0x0 /home/ubuntu/android-ndk-r9c/toolchains/arm-linux-androideabi-4.8/prebuilt/linux-x86/bin/../lib/gcc/arm-linux-androideabi/4.8/libgcc.a(libunwind.o)
 .data          0x000d137c        0x0 /home/ubuntu/android-ndk-r9c/toolchains/arm-linux-androideabi-4.8/prebuilt/linux-x86/bin/../lib/gcc/arm-linux-androideabi/4.8/libgcc.a(pr-support.o)
 .data          0x000d137c        0x0 /home/ubuntu/android-ndk-r9c/toolchains/arm-linux-androideabi-4.8/prebuilt/linux-x86/bin/../lib/gcc/arm-linux-androideabi/4.8/libgcc.a(_popcount_tab.o)
 .data          0x000d137c        0x0 /home/ubuntu/android-ndk-r9c/toolchains/arm-linux-androideabi-4.8/prebuilt/linux-x86/bin/../lib/gcc/arm-linux-androideabi/4.8/libgcc.a(_divdi3.o)
 .data          0x000d137c        0x0 /home/ubuntu/android-ndk-r9c/toolchains/arm-linux-androideabi-4.8/prebuilt/linux-x86/bin/../lib/gcc/arm-linux-androideabi/4.8/libgcc.a(_udivdi3.o)
 .data          0x000d137c        0x0 /home/ubuntu/android-ndk-r9c/platforms/android-19/arch-arm/usr/lib/crtend_so.o

.bss            0x000d1380  0x1b5ec00
 .bss           0x000d1380        0x0 /home/ubuntu/android-ndk-r9c/platforms/android-19/arch-arm/usr/lib/crtbegin_so.o
 .bss           0x000d1380       0x20 /home/ubuntu/Desktop/RockboxRCC/bu480/apps/action.o
 .bss           0x000d13a0        0xc /home/ubuntu/Desktop/RockboxRCC/bu480/apps/abrepeat.o
                0x000d13a8                ab_A_marker
                0x000d13a4                ab_B_marker
 .bss           0x000d13ac      0x8fc /home/ubuntu/Desktop/RockboxRCC/bu480/apps/bookmark.o
 .bss           0x000d1ca8       0xa4 /home/ubuntu/Desktop/RockboxRCC/bu480/apps/debug_menu.o
 .bss           0x000d1d4c     0x1504 /home/ubuntu/Desktop/RockboxRCC/bu480/apps/filetypes.o
 .bss           0x000d3250     0x5008 /home/ubuntu/Desktop/RockboxRCC/bu480/apps/language.o
 .bss           0x000d8258        0x0 /home/ubuntu/Desktop/RockboxRCC/bu480/apps/main.o
 .bss           0x000d8258      0x108 /home/ubuntu/Desktop/RockboxRCC/bu480/apps/menu.o
 .bss           0x000d8360        0x0 /home/ubuntu/Desktop/RockboxRCC/bu480/apps/menus/menu_common.o
 .bss           0x000d8360        0x0 /home/ubuntu/Desktop/RockboxRCC/bu480/apps/menus/display_menu.o
 .bss           0x000d8360        0x8 /home/ubuntu/Desktop/RockboxRCC/bu480/apps/menus/theme_menu.o
 .bss           0x000d8368        0x0 /home/ubuntu/Desktop/RockboxRCC/bu480/apps/menus/plugin_menu.o
 .bss           0x000d8368        0x0 /home/ubuntu/Desktop/RockboxRCC/bu480/apps/menus/eq_menu.o
 .bss           0x000d8368     0x3148 /home/ubuntu/Desktop/RockboxRCC/bu480/apps/buffering.o
 .bss           0x000db4b0     0x14bc /home/ubuntu/Desktop/RockboxRCC/bu480/apps/voice_thread.o
 .bss           0x000dc96c       0x10 /home/ubuntu/Desktop/RockboxRCC/bu480/apps/rbcodec_helpers.o
 .bss           0x000dc97c        0x0 /home/ubuntu/Desktop/RockboxRCC/bu480/apps/menus/main_menu.o
 .bss           0x000dc97c        0x8 /home/ubuntu/Desktop/RockboxRCC/bu480/apps/menus/playback_menu.o
 .bss           0x000dc984        0x0 /home/ubuntu/Desktop/RockboxRCC/bu480/apps/menus/playlist_menu.o
 .bss           0x000dc984       0x10 /home/ubuntu/Desktop/RockboxRCC/bu480/apps/menus/settings_menu.o
 .bss           0x000dc994       0x1c /home/ubuntu/Desktop/RockboxRCC/bu480/apps/menus/sound_menu.o
 .bss           0x000dc9b0       0x50 /home/ubuntu/Desktop/RockboxRCC/bu480/apps/menus/time_menu.o
 .bss           0x000dca00       0x44 /home/ubuntu/Desktop/RockboxRCC/bu480/apps/misc.o
 .bss           0x000dca44      0x220 /home/ubuntu/Desktop/RockboxRCC/bu480/apps/onplay.o
 .bss           0x000dcc64      0x640 /home/ubuntu/Desktop/RockboxRCC/bu480/apps/playlist.o
 .bss           0x000dd2a4      0x424 /home/ubuntu/Desktop/RockboxRCC/bu480/apps/playlist_catalog.o
 .bss           0x000dd6c8     0x14b4 /home/ubuntu/Desktop/RockboxRCC/bu480/apps/playlist_viewer.o
 .bss           0x000deb7c    0x80224 /home/ubuntu/Desktop/RockboxRCC/bu480/apps/plugin.o
 .bss           0x0015eda0      0x23c /home/ubuntu/Desktop/RockboxRCC/bu480/apps/root_menu.o
 .bss           0x0015efdc        0x0 /home/ubuntu/Desktop/RockboxRCC/bu480/apps/screens.o
 .bss           0x0015efdc       0x34 /home/ubuntu/Desktop/RockboxRCC/bu480/apps/settings.o
                0x0015f00c                lasttime
 .bss           0x0015f010        0x4 /home/ubuntu/Desktop/RockboxRCC/bu480/apps/settings_list.o
 .bss           0x0015f014        0xc /home/ubuntu/Desktop/RockboxRCC/bu480/apps/shortcuts.o
 .bss           0x0015f020        0x4 /home/ubuntu/Desktop/RockboxRCC/bu480/apps/status.o
 .bss           0x0015f024        0x0 /home/ubuntu/Desktop/RockboxRCC/bu480/apps/cuesheet.o
 .bss           0x0015f024      0x298 /home/ubuntu/Desktop/RockboxRCC/bu480/apps/talk.o
 .bss           0x0015f2bc      0xfe0 /home/ubuntu/Desktop/RockboxRCC/bu480/apps/tree.o
 .bss           0x0016029c    0x103d4 /home/ubuntu/Desktop/RockboxRCC/bu480/apps/tagtree.o
 .bss           0x00170670        0x4 /home/ubuntu/Desktop/RockboxRCC/bu480/apps/filetree.o
 .bss           0x00170674       0x10 /home/ubuntu/Desktop/RockboxRCC/bu480/apps/scrobbler.o
 .bss           0x00170684        0x0 /home/ubuntu/Desktop/RockboxRCC/bu480/apps/screen_access.o
 .bss           0x00170684       0x48 /home/ubuntu/Desktop/RockboxRCC/bu480/apps/gui/icon.o
 .bss           0x001706cc      0x4c4 /home/ubuntu/Desktop/RockboxRCC/bu480/apps/gui/list.o
 .bss           0x00170b90      0x3a0 /home/ubuntu/Desktop/RockboxRCC/bu480/apps/gui/line.o
 .bss           0x00170f30       0x9c /home/ubuntu/Desktop/RockboxRCC/bu480/apps/gui/bitmap/list.o
 .bss           0x00170fcc       0x28 /home/ubuntu/Desktop/RockboxRCC/bu480/apps/gui/bitmap/list-skinned.o
 .bss           0x00170ff4        0xc /home/ubuntu/Desktop/RockboxRCC/bu480/apps/gui/option_select.o
 .bss           0x00171000        0x2 /home/ubuntu/Desktop/RockboxRCC/bu480/apps/gui/pitchscreen.o
 .bss           0x00171002        0x0 /home/ubuntu/Desktop/RockboxRCC/bu480/apps/gui/quickscreen.o
 .bss           0x00171004      0x21c /home/ubuntu/Desktop/RockboxRCC/bu480/apps/gui/folder_select.o
 .bss           0x00171220        0x0 /home/ubuntu/Desktop/RockboxRCC/bu480/apps/gui/wps.o
 .bss           0x00171220        0x4 /home/ubuntu/Desktop/RockboxRCC/bu480/apps/gui/scrollbar.o
 .bss           0x00171224        0x0 /home/ubuntu/Desktop/RockboxRCC/bu480/apps/gui/splash.o
 .bss           0x00171224        0x0 /home/ubuntu/Desktop/RockboxRCC/bu480/apps/gui/statusbar.o
 .bss           0x00171224       0xa0 /home/ubuntu/Desktop/RockboxRCC/bu480/apps/gui/statusbar-skinned.o
 .bss           0x001712c4       0x1c /home/ubuntu/Desktop/RockboxRCC/bu480/apps/hosted/android/yesno.o
 .bss           0x001712e0       0x1c /home/ubuntu/Desktop/RockboxRCC/bu480/apps/hosted/android/notification.o
 .bss           0x001712fc       0x8c /home/ubuntu/Desktop/RockboxRCC/bu480/apps/gui/viewport.o
 .bss           0x00171388      0x440 /home/ubuntu/Desktop/RockboxRCC/bu480/apps/gui/skin_engine/skin_backdrops.o
 .bss           0x001717c8        0x0 /home/ubuntu/Desktop/RockboxRCC/bu480/apps/gui/skin_engine/skin_display.o
 .bss           0x001717c8       0xb4 /home/ubuntu/Desktop/RockboxRCC/bu480/apps/gui/skin_engine/skin_engine.o
                0x0017186c                wps_state
 .bss           0x0017187c       0xb4 /home/ubuntu/Desktop/RockboxRCC/bu480/apps/gui/skin_engine/skin_parser.o
 .bss           0x00171930       0x84 /home/ubuntu/Desktop/RockboxRCC/bu480/apps/gui/skin_engine/skin_render.o
 .bss           0x001719b4      0xa58 /home/ubuntu/Desktop/RockboxRCC/bu480/apps/gui/skin_engine/skin_tokens.o
 .bss           0x0017240c        0x0 /home/ubuntu/Desktop/RockboxRCC/bu480/apps/gui/skin_engine/skin_touchsupport.o
 .bss           0x0017240c        0x0 /home/ubuntu/Desktop/RockboxRCC/bu480/apps/gui/backdrop.o
 .bss           0x0017240c        0x0 /home/ubuntu/Desktop/RockboxRCC/bu480/apps/recorder/bmp.o
 .bss           0x0017240c        0x0 /home/ubuntu/Desktop/RockboxRCC/bu480/apps/recorder/icons.o
 .bss           0x0017240c       0x24 /home/ubuntu/Desktop/RockboxRCC/bu480/apps/hosted/android/keyboard.o
 .bss           0x00172430       0x94 /home/ubuntu/Desktop/RockboxRCC/bu480/apps/recorder/peakmeter.o
 .bss           0x001724c4        0x0 /home/ubuntu/Desktop/RockboxRCC/bu480/apps/recorder/resize.o
 .bss           0x001724c4        0x0 /home/ubuntu/Desktop/RockboxRCC/bu480/apps/recorder/jpeg_load.o
 .bss           0x001724c4        0x0 /home/ubuntu/Desktop/RockboxRCC/bu480/apps/recorder/jpeg_idct_arm.o
 .bss           0x001724c4        0x0 /home/ubuntu/Desktop/RockboxRCC/bu480/apps/recorder/albumart.o
 .bss           0x001724c4        0x0 /home/ubuntu/Desktop/RockboxRCC/bu480/apps/gui/color_picker.o
 .bss           0x001724c4     0x205c /home/ubuntu/Desktop/RockboxRCC/bu480/apps/audio_thread.o
                0x0017451c                audio_is_initialized
                0x00174518                audio_thread_id
 .bss           0x00174520       0x5c /home/ubuntu/Desktop/RockboxRCC/bu480/apps/pcmbuf.o
 .bss           0x0017457c     0x30f0 /home/ubuntu/Desktop/RockboxRCC/bu480/apps/codec_thread.o
 .bss           0x0017766c     0x1f54 /home/ubuntu/Desktop/RockboxRCC/bu480/apps/playback.o
                0x001795b8                skip_pending
                0x001795bc                play_status
 .bss           0x001795c0   0x10000c /home/ubuntu/Desktop/RockboxRCC/bu480/apps/codecs.o
 .bss           0x002795cc      0x170 /home/ubuntu/Desktop/RockboxRCC/bu480/apps/beep.o
 .bss           0x0027973c     0x6bf4 /home/ubuntu/Desktop/RockboxRCC/bu480/apps/tagcache.o
 .bss           0x00280330        0x0 /home/ubuntu/Desktop/RockboxRCC/bu480/apps/keymaps/keymap-touchscreen.o
 .bss           0x00280330        0x0 /home/ubuntu/Desktop/RockboxRCC/bu480/apps/keymaps/keymap-android.o
 .bss           0x00280330        0x0 /home/ubuntu/Desktop/RockboxRCC/bu480/apps/bitmaps/mono/default_icons.o
 .bss           0x00280330        0x0 /home/ubuntu/Desktop/RockboxRCC/bu480/apps/bitmaps/native/rockboxlogo.480x149x16.o
 .bss           0x00280330        0x0 /home/ubuntu/Desktop/RockboxRCC/bu480/apps/bitmaps/native/usblogo.176x48x16.o
 .bss           0x00280330        0x0 /home/ubuntu/Desktop/RockboxRCC/bu480/lang/lang_core.o
 .bss           0x00280330        0x0 /home/ubuntu/Desktop/RockboxRCC/bu480/firmware/libfirmware.a(ata_idle_notify.o)
 .bss           0x00280330       0xe0 /home/ubuntu/Desktop/RockboxRCC/bu480/firmware/libfirmware.a(events.o)
 .bss           0x00280410        0x0 /home/ubuntu/Desktop/RockboxRCC/bu480/firmware/libfirmware.a(backlight.o)
 .bss           0x00280410        0x0 /home/ubuntu/Desktop/RockboxRCC/bu480/firmware/libfirmware.a(buflib.o)
 .bss           0x00280410        0x4 /home/ubuntu/Desktop/RockboxRCC/bu480/firmware/libfirmware.a(core_alloc.o)
 .bss           0x00280414       0x2c /home/ubuntu/Desktop/RockboxRCC/bu480/firmware/libfirmware.a(general.o)
 .bss           0x00280440     0x110c /home/ubuntu/Desktop/RockboxRCC/bu480/firmware/libfirmware.a(powermgmt.o)
                0x0028145c                power_history
 .bss           0x0028154c     0x1614 /home/ubuntu/Desktop/RockboxRCC/bu480/firmware/libfirmware.a(cpuinfo-linux.o)
 .bss           0x00282b60        0x1 /home/ubuntu/Desktop/RockboxRCC/bu480/firmware/libfirmware.a(usb.o)
                0x00282b60                do_screendump_instead_of_usb
 .bss           0x00282b64       0xac /home/ubuntu/Desktop/RockboxRCC/bu480/firmware/libfirmware.a(kernel.o)
                0x00282c0c                current_tick
 .bss           0x00282c10       0x80 /home/ubuntu/Desktop/RockboxRCC/bu480/firmware/libfirmware.a(panic.o)
 .bss           0x00282c90        0x0 /home/ubuntu/Desktop/RockboxRCC/bu480/firmware/libfirmware.a(version.o)
 .bss           0x00282c90        0x0 /home/ubuntu/Desktop/RockboxRCC/bu480/firmware/libfirmware.a(crc32.o)
 .bss           0x00282c90        0x0 /home/ubuntu/Desktop/RockboxRCC/bu480/firmware/libfirmware.a(filefuncs.o)
 .bss           0x00282c90        0x0 /home/ubuntu/Desktop/RockboxRCC/bu480/firmware/libfirmware.a(format.o)
 .bss           0x00282c90        0x0 /home/ubuntu/Desktop/RockboxRCC/bu480/firmware/libfirmware.a(rbpaths.o)
 .bss           0x00282c90        0x0 /home/ubuntu/Desktop/RockboxRCC/bu480/firmware/libfirmware.a(strcasecmp.o)
 .bss           0x00282c90        0x0 /home/ubuntu/Desktop/RockboxRCC/bu480/firmware/libfirmware.a(strcasestr.o)
 .bss           0x00282c90        0x0 /home/ubuntu/Desktop/RockboxRCC/bu480/firmware/libfirmware.a(strnatcmp.o)
 .bss           0x00282c90        0x0 /home/ubuntu/Desktop/RockboxRCC/bu480/firmware/libfirmware.a(strlcat.o)
 .bss           0x00282c90        0x0 /home/ubuntu/Desktop/RockboxRCC/bu480/firmware/libfirmware.a(strlcpy.o)
 .bss           0x00282c90        0x0 /home/ubuntu/Desktop/RockboxRCC/bu480/firmware/libfirmware.a(structec.o)
 .bss           0x00282c90       0x30 /home/ubuntu/Desktop/RockboxRCC/bu480/firmware/libfirmware.a(timefuncs.o)
 .bss           0x00282cc0    0x10008 /home/ubuntu/Desktop/RockboxRCC/bu480/firmware/libfirmware.a(unicode.o)
 .bss           0x00292cc8     0x74e0 /home/ubuntu/Desktop/RockboxRCC/bu480/firmware/libfirmware.a(scroll_engine.o)
 .bss           0x0029a1a8     0x1378 /home/ubuntu/Desktop/RockboxRCC/bu480/firmware/libfirmware.a(bidi.o)
 .bss           0x0029b520      0x13c /home/ubuntu/Desktop/RockboxRCC/bu480/firmware/libfirmware.a(font.o)
 .bss           0x0029b65c        0x0 /home/ubuntu/Desktop/RockboxRCC/bu480/firmware/libfirmware.a(lru.o)
 .bss           0x0029b65c        0x4 /home/ubuntu/Desktop/RockboxRCC/bu480/firmware/libfirmware.a(screendump.o)
 .bss           0x0029b660        0x8 /home/ubuntu/Desktop/RockboxRCC/bu480/firmware/libfirmware.a(lcd-16bit.o)
 .bss           0x0029b668       0x44 /home/ubuntu/Desktop/RockboxRCC/bu480/firmware/libfirmware.a(diacritic.o)
 .bss           0x0029b6ac        0x8 /home/ubuntu/Desktop/RockboxRCC/bu480/firmware/libfirmware.a(led.o)
 .bss           0x0029b6b4       0x34 /home/ubuntu/Desktop/RockboxRCC/bu480/firmware/libfirmware.a(button.o)
 .bss           0x0029b6e8        0x4 /home/ubuntu/Desktop/RockboxRCC/bu480/firmware/libfirmware.a(touchscreen.o)
 .bss           0x0029b6ec       0x10 /home/ubuntu/Desktop/RockboxRCC/bu480/firmware/libfirmware.a(sound.o)
 .bss           0x0029b6fc        0x0 /home/ubuntu/Desktop/RockboxRCC/bu480/firmware/libfirmware.a(pcm_sampr.o)
 .bss           0x0029b6fc       0x28 /home/ubuntu/Desktop/RockboxRCC/bu480/firmware/libfirmware.a(pcm.o)
                0x0029b720                pcm_callback_for_more
                0x0029b71c                pcm_play_status_callback
                0x0029b718                pcm_paused
                0x0029b719                pcm_playing
                0x0029b714                pcm_curr_sampr
                0x0029b710                pcm_fsel
 .bss           0x0029b740      0x880 /home/ubuntu/Desktop/RockboxRCC/bu480/firmware/libfirmware.a(pcm_mixer.o)
 .bss           0x0029bfc0        0x0 /home/ubuntu/Desktop/RockboxRCC/bu480/firmware/libfirmware.a(audiohw-swcodec.o)
 .bss           0x0029bfc0        0xc /home/ubuntu/Desktop/RockboxRCC/bu480/firmware/libfirmware.a(kernel-unix.o)
 .bss           0x0029bfcc        0x0 /home/ubuntu/Desktop/RockboxRCC/bu480/firmware/libfirmware.a(filesystem-unix.o)
 .bss           0x0029bfcc        0x0 /home/ubuntu/Desktop/RockboxRCC/bu480/firmware/libfirmware.a(lc-unix.o)
 .bss           0x0029bfcc       0x2c /home/ubuntu/Desktop/RockboxRCC/bu480/firmware/libfirmware.a(lcd-android.o)
 .bss           0x0029bff8       0x14 /home/ubuntu/Desktop/RockboxRCC/bu480/firmware/libfirmware.a(button-android.o)
 .bss           0x0029c00c       0x28 /home/ubuntu/Desktop/RockboxRCC/bu480/firmware/libfirmware.a(pcm-android.o)
 .bss           0x0029c034        0x8 /home/ubuntu/Desktop/RockboxRCC/bu480/firmware/libfirmware.a(powermgmt-android.o)
 .bss           0x0029c03c      0x110 /home/ubuntu/Desktop/RockboxRCC/bu480/firmware/libfirmware.a(system-android.o)
 .bss           0x0029c14c        0x0 /home/ubuntu/Desktop/RockboxRCC/bu480/firmware/libfirmware.a(telephony-android.o)
 .bss           0x0029c14c        0x1 /home/ubuntu/Desktop/RockboxRCC/bu480/firmware/libfirmware.a(button-application.o)
 .bss           0x0029c14d        0x0 /home/ubuntu/Desktop/RockboxRCC/bu480/firmware/libfirmware.a(android.o)
 .bss           0x0029c150       0x54 /home/ubuntu/Desktop/RockboxRCC/bu480/firmware/libfirmware.a(thread.o)
 .bss           0x0029c1a4        0x0 /home/ubuntu/Desktop/RockboxRCC/bu480/firmware/libfirmware.a(sysfont.o)
 .bss           0x0029c1a4        0x0 /home/ubuntu/Desktop/RockboxRCC/bu480/firmware/libfirmware.a(ffs.o)
 .bss           0x0029c1a4        0x0 /home/ubuntu/Desktop/RockboxRCC/bu480/firmware/libfirmware.a(memset16.o)
 .bss           0x0029c1a4        0x0 /home/ubuntu/Desktop/RockboxRCC/bu480/firmware/libfirmware.a(rtc.o)
 .bss           0x0029c1a4        0x0 /home/ubuntu/Desktop/RockboxRCC/bu480/firmware/libfirmware.a(arabjoin.o)
 .bss           0x0029c1a4        0x0 /home/ubuntu/Desktop/RockboxRCC/bu480/firmware/libfirmware.a(font_cache.o)
 .bss           0x0029c1a4        0x0 /home/ubuntu/Desktop/RockboxRCC/bu480/lib/rbcodec/codecs/libspeex-voice.a(bits.o)
 .bss           0x0029c1a4        0x0 /home/ubuntu/Desktop/RockboxRCC/bu480/lib/rbcodec/codecs/libspeex-voice.a(modes_wb.o)
 .bss           0x0029c1a4        0x0 /home/ubuntu/Desktop/RockboxRCC/bu480/lib/rbcodec/codecs/libspeex-voice.a(quant_lsp.o)
 .bss           0x0029c1a4      0x20c /home/ubuntu/Desktop/RockboxRCC/bu480/lib/rbcodec/codecs/libspeex-voice.a(sb_celp.o)
 .bss           0x0029c3b0        0x0 /home/ubuntu/Desktop/RockboxRCC/bu480/lib/rbcodec/codecs/libspeex-voice.a(speex.o)
 .bss           0x0029c3b0        0x0 /home/ubuntu/Desktop/RockboxRCC/bu480/lib/rbcodec/codecs/libspeex-voice.a(filters_arm4.o)
 .bss           0x0029c3b0        0x0 /home/ubuntu/Desktop/RockboxRCC/bu480/lib/rbcodec/codecs/libspeex-voice.a(cb_search.o)
 .bss           0x0029c3b0        0x0 /home/ubuntu/Desktop/RockboxRCC/bu480/lib/rbcodec/codecs/libspeex-voice.a(filters.o)
 .bss           0x0029c3b0        0x0 /home/ubuntu/Desktop/RockboxRCC/bu480/lib/rbcodec/codecs/libspeex-voice.a(hexc_10_32_table.o)
 .bss           0x0029c3b0        0x0 /home/ubuntu/Desktop/RockboxRCC/bu480/lib/rbcodec/codecs/libspeex-voice.a(hexc_table.o)
 .bss           0x0029c3b0        0x0 /home/ubuntu/Desktop/RockboxRCC/bu480/lib/rbcodec/codecs/libspeex-voice.a(high_lsp_tables.o)
 .bss           0x0029c3b0        0x0 /home/ubuntu/Desktop/RockboxRCC/bu480/lib/rbcodec/codecs/libspeex-voice.a(lsp.o)
 .bss           0x0029c3b0        0x0 /home/ubuntu/Desktop/RockboxRCC/bu480/lib/rbcodec/codecs/libspeex-voice.a(lsp_tables_nb.o)
 .bss           0x0029c3b0        0x0 /home/ubuntu/Desktop/RockboxRCC/bu480/lib/rbcodec/codecs/libspeex-voice.a(ltp.o)
 .bss           0x0029c3b0        0x0 /home/ubuntu/Desktop/RockboxRCC/bu480/lib/rbcodec/codecs/libspeex-voice.a(modes.o)
 .bss           0x0029c3b0      0x624 /home/ubuntu/Desktop/RockboxRCC/bu480/lib/rbcodec/codecs/libspeex-voice.a(nb_celp.o)
 .bss           0x0029c9d4        0x0 /home/ubuntu/Desktop/RockboxRCC/bu480/lib/rbcodec/codecs/libspeex-voice.a(speex_callbacks.o)
 .bss           0x0029c9d4        0x0 /home/ubuntu/Desktop/RockboxRCC/bu480/lib/rbcodec/codecs/libspeex-voice.a(exc_10_16_table.o)
 .bss           0x0029c9d4        0x0 /home/ubuntu/Desktop/RockboxRCC/bu480/lib/rbcodec/codecs/libspeex-voice.a(exc_10_32_table.o)
 .bss           0x0029c9d4        0x0 /home/ubuntu/Desktop/RockboxRCC/bu480/lib/rbcodec/codecs/libspeex-voice.a(exc_20_32_table.o)
 .bss           0x0029c9d4        0x0 /home/ubuntu/Desktop/RockboxRCC/bu480/lib/rbcodec/codecs/libspeex-voice.a(exc_5_256_table.o)
 .bss           0x0029c9d4        0x0 /home/ubuntu/Desktop/RockboxRCC/bu480/lib/rbcodec/codecs/libspeex-voice.a(exc_5_64_table.o)
 .bss           0x0029c9d4        0x0 /home/ubuntu/Desktop/RockboxRCC/bu480/lib/rbcodec/codecs/libspeex-voice.a(exc_8_128_table.o)
 .bss           0x0029c9d4        0x0 /home/ubuntu/Desktop/RockboxRCC/bu480/lib/rbcodec/codecs/libspeex-voice.a(gain_table.o)
 .bss           0x0029c9d4        0x0 /home/ubuntu/Desktop/RockboxRCC/bu480/lib/rbcodec/codecs/libspeex-voice.a(gain_table_lbr.o)
 .bss           0x0029c9d4        0x1 /home/ubuntu/Desktop/RockboxRCC/bu480/lib/librbcodec.a(metadata.o)
                0x0029c9d4                write_metadata_log
 .bss           0x0029c9d5        0x1 /home/ubuntu/Desktop/RockboxRCC/bu480/lib/librbcodec.a(id3tags.o)
 .bss           0x0029c9d6        0x0 /home/ubuntu/Desktop/RockboxRCC/bu480/lib/librbcodec.a(mp3.o)
 .bss           0x0029c9d8       0x20 /home/ubuntu/Desktop/RockboxRCC/bu480/lib/librbcodec.a(mp3data.o)
 .bss           0x0029c9f8        0xc /home/ubuntu/Desktop/RockboxRCC/bu480/lib/librbcodec.a(channel_mode.o)
 .bss           0x0029ca04     0x3d60 /home/ubuntu/Desktop/RockboxRCC/bu480/lib/librbcodec.a(compressor.o)
 .bss           0x002a0764       0xa0 /home/ubuntu/Desktop/RockboxRCC/bu480/lib/librbcodec.a(crossfeed.o)
 .bss           0x002a0804     0x3e44 /home/ubuntu/Desktop/RockboxRCC/bu480/lib/librbcodec.a(emu10k_space80.o)
 .bss           0x002a4648      0x1a8 /home/ubuntu/Desktop/RockboxRCC/bu480/lib/librbcodec.a(dsp_core.o)
 .bss           0x002a47f0        0x0 /home/ubuntu/Desktop/RockboxRCC/bu480/lib/librbcodec.a(dsp_filter.o)
 .bss           0x002a47f0       0x1c /home/ubuntu/Desktop/RockboxRCC/bu480/lib/librbcodec.a(dsp_misc.o)
 .bss           0x002a480c      0x600 /home/ubuntu/Desktop/RockboxRCC/bu480/lib/librbcodec.a(dsp_sample_input.o)
 .bss           0x002a4e0c       0x24 /home/ubuntu/Desktop/RockboxRCC/bu480/lib/librbcodec.a(dsp_sample_output.o)
 .bss           0x002a4e30      0x81c /home/ubuntu/Desktop/RockboxRCC/bu480/lib/librbcodec.a(eq.o)
 .bss           0x002a564c      0x998 /home/ubuntu/Desktop/RockboxRCC/bu480/lib/librbcodec.a(resample.o)
 .bss           0x002a5fe4        0x0 /home/ubuntu/Desktop/RockboxRCC/bu480/lib/librbcodec.a(pga.o)
 .bss           0x002a5fe4       0x5c /home/ubuntu/Desktop/RockboxRCC/bu480/lib/librbcodec.a(tdspeed.o)
 .bss           0x002a6040       0x7c /home/ubuntu/Desktop/RockboxRCC/bu480/lib/librbcodec.a(tone_controls.o)
 .bss           0x002a60bc        0x0 /home/ubuntu/Desktop/RockboxRCC/bu480/lib/librbcodec.a(dsp_arm.o)
 .bss           0x002a60bc        0x0 /home/ubuntu/Desktop/RockboxRCC/bu480/lib/librbcodec.a(replaygain.o)
 .bss           0x002a60bc        0x0 /home/ubuntu/Desktop/RockboxRCC/bu480/lib/librbcodec.a(metadata_common.o)
 .bss           0x002a60bc        0x0 /home/ubuntu/Desktop/RockboxRCC/bu480/lib/librbcodec.a(a52.o)
 .bss           0x002a60bc        0x0 /home/ubuntu/Desktop/RockboxRCC/bu480/lib/librbcodec.a(adx.o)
 .bss           0x002a60bc        0x0 /home/ubuntu/Desktop/RockboxRCC/bu480/lib/librbcodec.a(aiff.o)
 .bss           0x002a60bc        0x0 /home/ubuntu/Desktop/RockboxRCC/bu480/lib/librbcodec.a(asap.o)
 .bss           0x002a60bc        0x0 /home/ubuntu/Desktop/RockboxRCC/bu480/lib/librbcodec.a(asf.o)
 .bss           0x002a60bc        0x0 /home/ubuntu/Desktop/RockboxRCC/bu480/lib/librbcodec.a(au.o)
 .bss           0x002a60bc        0x0 /home/ubuntu/Desktop/RockboxRCC/bu480/lib/librbcodec.a(ay.o)
 .bss           0x002a60bc        0x0 /home/ubuntu/Desktop/RockboxRCC/bu480/lib/librbcodec.a(flac.o)
 .bss           0x002a60bc        0x0 /home/ubuntu/Desktop/RockboxRCC/bu480/lib/librbcodec.a(gbs.o)
 .bss           0x002a60bc        0x0 /home/ubuntu/Desktop/RockboxRCC/bu480/lib/librbcodec.a(hes.o)
 .bss           0x002a60bc        0x0 /home/ubuntu/Desktop/RockboxRCC/bu480/lib/librbcodec.a(kss.o)
 .bss           0x002a60bc        0x0 /home/ubuntu/Desktop/RockboxRCC/bu480/lib/librbcodec.a(mod.o)
 .bss           0x002a60bc        0x0 /home/ubuntu/Desktop/RockboxRCC/bu480/lib/librbcodec.a(monkeys.o)
 .bss           0x002a60bc        0x0 /home/ubuntu/Desktop/RockboxRCC/bu480/lib/librbcodec.a(mp4.o)
 .bss           0x002a60bc        0x0 /home/ubuntu/Desktop/RockboxRCC/bu480/lib/librbcodec.a(mpc.o)
 .bss           0x002a60bc        0x0 /home/ubuntu/Desktop/RockboxRCC/bu480/lib/librbcodec.a(nsf.o)
 .bss           0x002a60bc        0x0 /home/ubuntu/Desktop/RockboxRCC/bu480/lib/librbcodec.a(ogg.o)
 .bss           0x002a60bc        0x0 /home/ubuntu/Desktop/RockboxRCC/bu480/lib/librbcodec.a(oma.o)
 .bss           0x002a60bc        0x0 /home/ubuntu/Desktop/RockboxRCC/bu480/lib/librbcodec.a(rm.o)
 .bss           0x002a60bc        0x0 /home/ubuntu/Desktop/RockboxRCC/bu480/lib/librbcodec.a(sgc.o)
 .bss           0x002a60bc        0x0 /home/ubuntu/Desktop/RockboxRCC/bu480/lib/librbcodec.a(sid.o)
 .bss           0x002a60bc        0x0 /home/ubuntu/Desktop/RockboxRCC/bu480/lib/librbcodec.a(smaf.o)
 .bss           0x002a60bc        0x0 /home/ubuntu/Desktop/RockboxRCC/bu480/lib/librbcodec.a(spc.o)
 .bss           0x002a60bc        0x0 /home/ubuntu/Desktop/RockboxRCC/bu480/lib/librbcodec.a(tta.o)
 .bss           0x002a60bc        0x0 /home/ubuntu/Desktop/RockboxRCC/bu480/lib/librbcodec.a(vgm.o)
 .bss           0x002a60bc        0x0 /home/ubuntu/Desktop/RockboxRCC/bu480/lib/librbcodec.a(vorbis.o)
 .bss           0x002a60bc        0x0 /home/ubuntu/Desktop/RockboxRCC/bu480/lib/librbcodec.a(vox.o)
 .bss           0x002a60bc        0x0 /home/ubuntu/Desktop/RockboxRCC/bu480/lib/librbcodec.a(wave.o)
 .bss           0x002a60bc        0x0 /home/ubuntu/Desktop/RockboxRCC/bu480/lib/librbcodec.a(wavpack.o)
 .bss           0x002a60bc        0x0 /home/ubuntu/Desktop/RockboxRCC/bu480/lib/librbcodec.a(emu10k_core.o)
 .bss           0x002a60bc        0x0 /home/ubuntu/Desktop/RockboxRCC/bu480/lib/librbcodec.a(ape.o)
 .bss           0x002a60bc        0x0 /home/ubuntu/Desktop/RockboxRCC/bu480/lib/libunwarminder.a(backtrace.o)
 .bss           0x002a60bc        0x0 /home/ubuntu/Desktop/RockboxRCC/bu480/lib/libunwarminder.a(unwarminder.o)
 .bss           0x002a60bc        0x0 /home/ubuntu/Desktop/RockboxRCC/bu480/lib/libunwarminder.a(unwarm_thumb.o)
 .bss           0x002a60bc        0x0 /home/ubuntu/Desktop/RockboxRCC/bu480/lib/libunwarminder.a(safe_read.o)
 .bss           0x002a60bc        0x0 /home/ubuntu/Desktop/RockboxRCC/bu480/lib/libunwarminder.a(unwarm_arm.o)
 .bss           0x002a60bc        0x0 /home/ubuntu/Desktop/RockboxRCC/bu480/lib/libunwarminder.a(unwarm.o)
 .bss           0x002a60bc        0x0 /home/ubuntu/Desktop/RockboxRCC/bu480/lib/libunwarminder.a(unwarmmem.o)
 .bss           0x002a60bc        0xc /home/ubuntu/Desktop/RockboxRCC/bu480/lib/libskin_parser.a(skin_buffer.o)
 .bss           0x002a60c8       0x14 /home/ubuntu/Desktop/RockboxRCC/bu480/lib/libskin_parser.a(skin_parser.o)
                0x002a60d8                skin_line
                0x002a60d4                skin_start
                0x002a60d0                viewport_line
 .bss           0x002a60dc        0x0 /home/ubuntu/Desktop/RockboxRCC/bu480/lib/libskin_parser.a(skin_scan.o)
 .bss           0x002a60dc        0x0 /home/ubuntu/Desktop/RockboxRCC/bu480/lib/libskin_parser.a(tag_table.o)
 .bss           0x002a60dc        0x0 /home/ubuntu/Desktop/RockboxRCC/bu480/lib/libfixedpoint.a(fixedpoint.o)
 .bss           0x002a60e0       0x20 /home/ubuntu/Desktop/RockboxRCC/bu480/cpu-features.o
 .bss           0x002a6100        0x0 /home/ubuntu/Desktop/RockboxRCC/bu480/firmware/target/hosted/android/jni/power-manager.o
 .bss           0x002a6100        0x0 /home/ubuntu/android-ndk-r9c/toolchains/arm-linux-androideabi-4.8/prebuilt/linux-x86/bin/../lib/gcc/arm-linux-androideabi/4.8/libgcc.a(_udivsi3.o)
 .bss           0x002a6100        0x0 /home/ubuntu/android-ndk-r9c/toolchains/arm-linux-androideabi-4.8/prebuilt/linux-x86/bin/../lib/gcc/arm-linux-androideabi/4.8/libgcc.a(_divsi3.o)
 .bss           0x002a6100        0x0 /home/ubuntu/android-ndk-r9c/toolchains/arm-linux-androideabi-4.8/prebuilt/linux-x86/bin/../lib/gcc/arm-linux-androideabi/4.8/libgcc.a(_aeabi_ldivmod.o)
 .bss           0x002a6100        0x0 /home/ubuntu/android-ndk-r9c/toolchains/arm-linux-androideabi-4.8/prebuilt/linux-x86/bin/../lib/gcc/arm-linux-androideabi/4.8/libgcc.a(_aeabi_uldivmod.o)
 .bss           0x002a6100        0x0 /home/ubuntu/android-ndk-r9c/toolchains/arm-linux-androideabi-4.8/prebuilt/linux-x86/bin/../lib/gcc/arm-linux-androideabi/4.8/libgcc.a(_dvmd_lnx.o)
 .bss           0x002a6100        0x0 /home/ubuntu/android-ndk-r9c/toolchains/arm-linux-androideabi-4.8/prebuilt/linux-x86/bin/../lib/gcc/arm-linux-androideabi/4.8/libgcc.a(_popcountsi2.o)
 .bss           0x002a6100        0x0 /home/ubuntu/android-ndk-r9c/toolchains/arm-linux-androideabi-4.8/prebuilt/linux-x86/bin/../lib/gcc/arm-linux-androideabi/4.8/libgcc.a(bpabi.o)
 .bss           0x002a6100        0x0 /home/ubuntu/android-ndk-r9c/toolchains/arm-linux-androideabi-4.8/prebuilt/linux-x86/bin/../lib/gcc/arm-linux-androideabi/4.8/libgcc.a(unwind-arm.o)
 .bss           0x002a6100        0x0 /home/ubuntu/android-ndk-r9c/toolchains/arm-linux-androideabi-4.8/prebuilt/linux-x86/bin/../lib/gcc/arm-linux-androideabi/4.8/libgcc.a(libunwind.o)
 .bss           0x002a6100        0x0 /home/ubuntu/android-ndk-r9c/toolchains/arm-linux-androideabi-4.8/prebuilt/linux-x86/bin/../lib/gcc/arm-linux-androideabi/4.8/libgcc.a(pr-support.o)
 .bss           0x002a6100        0x0 /home/ubuntu/android-ndk-r9c/toolchains/arm-linux-androideabi-4.8/prebuilt/linux-x86/bin/../lib/gcc/arm-linux-androideabi/4.8/libgcc.a(_popcount_tab.o)
 .bss           0x002a6100        0x0 /home/ubuntu/android-ndk-r9c/toolchains/arm-linux-androideabi-4.8/prebuilt/linux-x86/bin/../lib/gcc/arm-linux-androideabi/4.8/libgcc.a(_divdi3.o)
 .bss           0x002a6100        0x0 /home/ubuntu/android-ndk-r9c/toolchains/arm-linux-androideabi-4.8/prebuilt/linux-x86/bin/../lib/gcc/arm-linux-androideabi/4.8/libgcc.a(_udivdi3.o)
 .bss           0x002a6100        0x0 /home/ubuntu/android-ndk-r9c/platforms/android-19/arch-arm/usr/lib/crtend_so.o
 ** common      0x002a6100  0x1989e80
